
Remote_Software.elf:     file format elf32-littlearm

Sections:
Idx Name          Size      VMA       LMA       File off  Algn
  0 .isr_vector   000000b8  08000000  08000000  00010000  2**0
                  CONTENTS, ALLOC, LOAD, READONLY, DATA
  1 .text         00003efc  080000b8  080000b8  000100b8  2**2
                  CONTENTS, ALLOC, LOAD, READONLY, CODE
  2 .rodata       00000c84  08003fb4  08003fb4  00013fb4  2**2
                  CONTENTS, ALLOC, LOAD, READONLY, DATA
  3 .ARM.extab    00000000  08004c38  08004c38  00020014  2**0
                  CONTENTS
  4 .ARM          00000000  08004c38  08004c38  00020014  2**0
                  CONTENTS
  5 .preinit_array 00000000  08004c38  08004c38  00020014  2**0
                  CONTENTS, ALLOC, LOAD, DATA
  6 .init_array   00000004  08004c38  08004c38  00014c38  2**2
                  CONTENTS, ALLOC, LOAD, DATA
  7 .fini_array   00000004  08004c3c  08004c3c  00014c3c  2**2
                  CONTENTS, ALLOC, LOAD, DATA
  8 .data         00000014  20000000  08004c40  00020000  2**2
                  CONTENTS, ALLOC, LOAD, DATA
  9 .bss          00000254  20000014  08004c54  00020014  2**2
                  ALLOC
 10 ._user_heap_stack 00000600  20000268  08004c54  00020268  2**0
                  ALLOC
 11 .ARM.attributes 00000028  00000000  00000000  00020014  2**0
                  CONTENTS, READONLY
 12 .comment      00000043  00000000  00000000  0002003c  2**0
                  CONTENTS, READONLY
 13 .debug_frame  000000b4  00000000  00000000  00020080  2**2
                  CONTENTS, READONLY, DEBUGGING, OCTETS

Disassembly of section .text:

080000b8 <__do_global_dtors_aux>:
 80000b8:	b510      	push	{r4, lr}
 80000ba:	4c06      	ldr	r4, [pc, #24]	; (80000d4 <__do_global_dtors_aux+0x1c>)
 80000bc:	7823      	ldrb	r3, [r4, #0]
 80000be:	2b00      	cmp	r3, #0
 80000c0:	d107      	bne.n	80000d2 <__do_global_dtors_aux+0x1a>
 80000c2:	4b05      	ldr	r3, [pc, #20]	; (80000d8 <__do_global_dtors_aux+0x20>)
 80000c4:	2b00      	cmp	r3, #0
 80000c6:	d002      	beq.n	80000ce <__do_global_dtors_aux+0x16>
 80000c8:	4804      	ldr	r0, [pc, #16]	; (80000dc <__do_global_dtors_aux+0x24>)
 80000ca:	e000      	b.n	80000ce <__do_global_dtors_aux+0x16>
 80000cc:	bf00      	nop
 80000ce:	2301      	movs	r3, #1
 80000d0:	7023      	strb	r3, [r4, #0]
 80000d2:	bd10      	pop	{r4, pc}
 80000d4:	20000014 	.word	0x20000014
 80000d8:	00000000 	.word	0x00000000
 80000dc:	08003f9c 	.word	0x08003f9c

080000e0 <frame_dummy>:
 80000e0:	4b04      	ldr	r3, [pc, #16]	; (80000f4 <frame_dummy+0x14>)
 80000e2:	b510      	push	{r4, lr}
 80000e4:	2b00      	cmp	r3, #0
 80000e6:	d003      	beq.n	80000f0 <frame_dummy+0x10>
 80000e8:	4903      	ldr	r1, [pc, #12]	; (80000f8 <frame_dummy+0x18>)
 80000ea:	4804      	ldr	r0, [pc, #16]	; (80000fc <frame_dummy+0x1c>)
 80000ec:	e000      	b.n	80000f0 <frame_dummy+0x10>
 80000ee:	bf00      	nop
 80000f0:	bd10      	pop	{r4, pc}
 80000f2:	46c0      	nop			; (mov r8, r8)
 80000f4:	00000000 	.word	0x00000000
 80000f8:	20000018 	.word	0x20000018
 80000fc:	08003f9c 	.word	0x08003f9c

08000100 <__gnu_thumb1_case_uqi>:
 8000100:	b402      	push	{r1}
 8000102:	4671      	mov	r1, lr
 8000104:	0849      	lsrs	r1, r1, #1
 8000106:	0049      	lsls	r1, r1, #1
 8000108:	5c09      	ldrb	r1, [r1, r0]
 800010a:	0049      	lsls	r1, r1, #1
 800010c:	448e      	add	lr, r1
 800010e:	bc02      	pop	{r1}
 8000110:	4770      	bx	lr
 8000112:	46c0      	nop			; (mov r8, r8)

08000114 <__udivsi3>:
 8000114:	2200      	movs	r2, #0
 8000116:	0843      	lsrs	r3, r0, #1
 8000118:	428b      	cmp	r3, r1
 800011a:	d374      	bcc.n	8000206 <__udivsi3+0xf2>
 800011c:	0903      	lsrs	r3, r0, #4
 800011e:	428b      	cmp	r3, r1
 8000120:	d35f      	bcc.n	80001e2 <__udivsi3+0xce>
 8000122:	0a03      	lsrs	r3, r0, #8
 8000124:	428b      	cmp	r3, r1
 8000126:	d344      	bcc.n	80001b2 <__udivsi3+0x9e>
 8000128:	0b03      	lsrs	r3, r0, #12
 800012a:	428b      	cmp	r3, r1
 800012c:	d328      	bcc.n	8000180 <__udivsi3+0x6c>
 800012e:	0c03      	lsrs	r3, r0, #16
 8000130:	428b      	cmp	r3, r1
 8000132:	d30d      	bcc.n	8000150 <__udivsi3+0x3c>
 8000134:	22ff      	movs	r2, #255	; 0xff
 8000136:	0209      	lsls	r1, r1, #8
 8000138:	ba12      	rev	r2, r2
 800013a:	0c03      	lsrs	r3, r0, #16
 800013c:	428b      	cmp	r3, r1
 800013e:	d302      	bcc.n	8000146 <__udivsi3+0x32>
 8000140:	1212      	asrs	r2, r2, #8
 8000142:	0209      	lsls	r1, r1, #8
 8000144:	d065      	beq.n	8000212 <__udivsi3+0xfe>
 8000146:	0b03      	lsrs	r3, r0, #12
 8000148:	428b      	cmp	r3, r1
 800014a:	d319      	bcc.n	8000180 <__udivsi3+0x6c>
 800014c:	e000      	b.n	8000150 <__udivsi3+0x3c>
 800014e:	0a09      	lsrs	r1, r1, #8
 8000150:	0bc3      	lsrs	r3, r0, #15
 8000152:	428b      	cmp	r3, r1
 8000154:	d301      	bcc.n	800015a <__udivsi3+0x46>
 8000156:	03cb      	lsls	r3, r1, #15
 8000158:	1ac0      	subs	r0, r0, r3
 800015a:	4152      	adcs	r2, r2
 800015c:	0b83      	lsrs	r3, r0, #14
 800015e:	428b      	cmp	r3, r1
 8000160:	d301      	bcc.n	8000166 <__udivsi3+0x52>
 8000162:	038b      	lsls	r3, r1, #14
 8000164:	1ac0      	subs	r0, r0, r3
 8000166:	4152      	adcs	r2, r2
 8000168:	0b43      	lsrs	r3, r0, #13
 800016a:	428b      	cmp	r3, r1
 800016c:	d301      	bcc.n	8000172 <__udivsi3+0x5e>
 800016e:	034b      	lsls	r3, r1, #13
 8000170:	1ac0      	subs	r0, r0, r3
 8000172:	4152      	adcs	r2, r2
 8000174:	0b03      	lsrs	r3, r0, #12
 8000176:	428b      	cmp	r3, r1
 8000178:	d301      	bcc.n	800017e <__udivsi3+0x6a>
 800017a:	030b      	lsls	r3, r1, #12
 800017c:	1ac0      	subs	r0, r0, r3
 800017e:	4152      	adcs	r2, r2
 8000180:	0ac3      	lsrs	r3, r0, #11
 8000182:	428b      	cmp	r3, r1
 8000184:	d301      	bcc.n	800018a <__udivsi3+0x76>
 8000186:	02cb      	lsls	r3, r1, #11
 8000188:	1ac0      	subs	r0, r0, r3
 800018a:	4152      	adcs	r2, r2
 800018c:	0a83      	lsrs	r3, r0, #10
 800018e:	428b      	cmp	r3, r1
 8000190:	d301      	bcc.n	8000196 <__udivsi3+0x82>
 8000192:	028b      	lsls	r3, r1, #10
 8000194:	1ac0      	subs	r0, r0, r3
 8000196:	4152      	adcs	r2, r2
 8000198:	0a43      	lsrs	r3, r0, #9
 800019a:	428b      	cmp	r3, r1
 800019c:	d301      	bcc.n	80001a2 <__udivsi3+0x8e>
 800019e:	024b      	lsls	r3, r1, #9
 80001a0:	1ac0      	subs	r0, r0, r3
 80001a2:	4152      	adcs	r2, r2
 80001a4:	0a03      	lsrs	r3, r0, #8
 80001a6:	428b      	cmp	r3, r1
 80001a8:	d301      	bcc.n	80001ae <__udivsi3+0x9a>
 80001aa:	020b      	lsls	r3, r1, #8
 80001ac:	1ac0      	subs	r0, r0, r3
 80001ae:	4152      	adcs	r2, r2
 80001b0:	d2cd      	bcs.n	800014e <__udivsi3+0x3a>
 80001b2:	09c3      	lsrs	r3, r0, #7
 80001b4:	428b      	cmp	r3, r1
 80001b6:	d301      	bcc.n	80001bc <__udivsi3+0xa8>
 80001b8:	01cb      	lsls	r3, r1, #7
 80001ba:	1ac0      	subs	r0, r0, r3
 80001bc:	4152      	adcs	r2, r2
 80001be:	0983      	lsrs	r3, r0, #6
 80001c0:	428b      	cmp	r3, r1
 80001c2:	d301      	bcc.n	80001c8 <__udivsi3+0xb4>
 80001c4:	018b      	lsls	r3, r1, #6
 80001c6:	1ac0      	subs	r0, r0, r3
 80001c8:	4152      	adcs	r2, r2
 80001ca:	0943      	lsrs	r3, r0, #5
 80001cc:	428b      	cmp	r3, r1
 80001ce:	d301      	bcc.n	80001d4 <__udivsi3+0xc0>
 80001d0:	014b      	lsls	r3, r1, #5
 80001d2:	1ac0      	subs	r0, r0, r3
 80001d4:	4152      	adcs	r2, r2
 80001d6:	0903      	lsrs	r3, r0, #4
 80001d8:	428b      	cmp	r3, r1
 80001da:	d301      	bcc.n	80001e0 <__udivsi3+0xcc>
 80001dc:	010b      	lsls	r3, r1, #4
 80001de:	1ac0      	subs	r0, r0, r3
 80001e0:	4152      	adcs	r2, r2
 80001e2:	08c3      	lsrs	r3, r0, #3
 80001e4:	428b      	cmp	r3, r1
 80001e6:	d301      	bcc.n	80001ec <__udivsi3+0xd8>
 80001e8:	00cb      	lsls	r3, r1, #3
 80001ea:	1ac0      	subs	r0, r0, r3
 80001ec:	4152      	adcs	r2, r2
 80001ee:	0883      	lsrs	r3, r0, #2
 80001f0:	428b      	cmp	r3, r1
 80001f2:	d301      	bcc.n	80001f8 <__udivsi3+0xe4>
 80001f4:	008b      	lsls	r3, r1, #2
 80001f6:	1ac0      	subs	r0, r0, r3
 80001f8:	4152      	adcs	r2, r2
 80001fa:	0843      	lsrs	r3, r0, #1
 80001fc:	428b      	cmp	r3, r1
 80001fe:	d301      	bcc.n	8000204 <__udivsi3+0xf0>
 8000200:	004b      	lsls	r3, r1, #1
 8000202:	1ac0      	subs	r0, r0, r3
 8000204:	4152      	adcs	r2, r2
 8000206:	1a41      	subs	r1, r0, r1
 8000208:	d200      	bcs.n	800020c <__udivsi3+0xf8>
 800020a:	4601      	mov	r1, r0
 800020c:	4152      	adcs	r2, r2
 800020e:	4610      	mov	r0, r2
 8000210:	4770      	bx	lr
 8000212:	e7ff      	b.n	8000214 <__udivsi3+0x100>
 8000214:	b501      	push	{r0, lr}
 8000216:	2000      	movs	r0, #0
 8000218:	f000 f8f0 	bl	80003fc <__aeabi_idiv0>
 800021c:	bd02      	pop	{r1, pc}
 800021e:	46c0      	nop			; (mov r8, r8)

08000220 <__aeabi_uidivmod>:
 8000220:	2900      	cmp	r1, #0
 8000222:	d0f7      	beq.n	8000214 <__udivsi3+0x100>
 8000224:	e776      	b.n	8000114 <__udivsi3>
 8000226:	4770      	bx	lr

08000228 <__divsi3>:
 8000228:	4603      	mov	r3, r0
 800022a:	430b      	orrs	r3, r1
 800022c:	d47f      	bmi.n	800032e <__divsi3+0x106>
 800022e:	2200      	movs	r2, #0
 8000230:	0843      	lsrs	r3, r0, #1
 8000232:	428b      	cmp	r3, r1
 8000234:	d374      	bcc.n	8000320 <__divsi3+0xf8>
 8000236:	0903      	lsrs	r3, r0, #4
 8000238:	428b      	cmp	r3, r1
 800023a:	d35f      	bcc.n	80002fc <__divsi3+0xd4>
 800023c:	0a03      	lsrs	r3, r0, #8
 800023e:	428b      	cmp	r3, r1
 8000240:	d344      	bcc.n	80002cc <__divsi3+0xa4>
 8000242:	0b03      	lsrs	r3, r0, #12
 8000244:	428b      	cmp	r3, r1
 8000246:	d328      	bcc.n	800029a <__divsi3+0x72>
 8000248:	0c03      	lsrs	r3, r0, #16
 800024a:	428b      	cmp	r3, r1
 800024c:	d30d      	bcc.n	800026a <__divsi3+0x42>
 800024e:	22ff      	movs	r2, #255	; 0xff
 8000250:	0209      	lsls	r1, r1, #8
 8000252:	ba12      	rev	r2, r2
 8000254:	0c03      	lsrs	r3, r0, #16
 8000256:	428b      	cmp	r3, r1
 8000258:	d302      	bcc.n	8000260 <__divsi3+0x38>
 800025a:	1212      	asrs	r2, r2, #8
 800025c:	0209      	lsls	r1, r1, #8
 800025e:	d065      	beq.n	800032c <__divsi3+0x104>
 8000260:	0b03      	lsrs	r3, r0, #12
 8000262:	428b      	cmp	r3, r1
 8000264:	d319      	bcc.n	800029a <__divsi3+0x72>
 8000266:	e000      	b.n	800026a <__divsi3+0x42>
 8000268:	0a09      	lsrs	r1, r1, #8
 800026a:	0bc3      	lsrs	r3, r0, #15
 800026c:	428b      	cmp	r3, r1
 800026e:	d301      	bcc.n	8000274 <__divsi3+0x4c>
 8000270:	03cb      	lsls	r3, r1, #15
 8000272:	1ac0      	subs	r0, r0, r3
 8000274:	4152      	adcs	r2, r2
 8000276:	0b83      	lsrs	r3, r0, #14
 8000278:	428b      	cmp	r3, r1
 800027a:	d301      	bcc.n	8000280 <__divsi3+0x58>
 800027c:	038b      	lsls	r3, r1, #14
 800027e:	1ac0      	subs	r0, r0, r3
 8000280:	4152      	adcs	r2, r2
 8000282:	0b43      	lsrs	r3, r0, #13
 8000284:	428b      	cmp	r3, r1
 8000286:	d301      	bcc.n	800028c <__divsi3+0x64>
 8000288:	034b      	lsls	r3, r1, #13
 800028a:	1ac0      	subs	r0, r0, r3
 800028c:	4152      	adcs	r2, r2
 800028e:	0b03      	lsrs	r3, r0, #12
 8000290:	428b      	cmp	r3, r1
 8000292:	d301      	bcc.n	8000298 <__divsi3+0x70>
 8000294:	030b      	lsls	r3, r1, #12
 8000296:	1ac0      	subs	r0, r0, r3
 8000298:	4152      	adcs	r2, r2
 800029a:	0ac3      	lsrs	r3, r0, #11
 800029c:	428b      	cmp	r3, r1
 800029e:	d301      	bcc.n	80002a4 <__divsi3+0x7c>
 80002a0:	02cb      	lsls	r3, r1, #11
 80002a2:	1ac0      	subs	r0, r0, r3
 80002a4:	4152      	adcs	r2, r2
 80002a6:	0a83      	lsrs	r3, r0, #10
 80002a8:	428b      	cmp	r3, r1
 80002aa:	d301      	bcc.n	80002b0 <__divsi3+0x88>
 80002ac:	028b      	lsls	r3, r1, #10
 80002ae:	1ac0      	subs	r0, r0, r3
 80002b0:	4152      	adcs	r2, r2
 80002b2:	0a43      	lsrs	r3, r0, #9
 80002b4:	428b      	cmp	r3, r1
 80002b6:	d301      	bcc.n	80002bc <__divsi3+0x94>
 80002b8:	024b      	lsls	r3, r1, #9
 80002ba:	1ac0      	subs	r0, r0, r3
 80002bc:	4152      	adcs	r2, r2
 80002be:	0a03      	lsrs	r3, r0, #8
 80002c0:	428b      	cmp	r3, r1
 80002c2:	d301      	bcc.n	80002c8 <__divsi3+0xa0>
 80002c4:	020b      	lsls	r3, r1, #8
 80002c6:	1ac0      	subs	r0, r0, r3
 80002c8:	4152      	adcs	r2, r2
 80002ca:	d2cd      	bcs.n	8000268 <__divsi3+0x40>
 80002cc:	09c3      	lsrs	r3, r0, #7
 80002ce:	428b      	cmp	r3, r1
 80002d0:	d301      	bcc.n	80002d6 <__divsi3+0xae>
 80002d2:	01cb      	lsls	r3, r1, #7
 80002d4:	1ac0      	subs	r0, r0, r3
 80002d6:	4152      	adcs	r2, r2
 80002d8:	0983      	lsrs	r3, r0, #6
 80002da:	428b      	cmp	r3, r1
 80002dc:	d301      	bcc.n	80002e2 <__divsi3+0xba>
 80002de:	018b      	lsls	r3, r1, #6
 80002e0:	1ac0      	subs	r0, r0, r3
 80002e2:	4152      	adcs	r2, r2
 80002e4:	0943      	lsrs	r3, r0, #5
 80002e6:	428b      	cmp	r3, r1
 80002e8:	d301      	bcc.n	80002ee <__divsi3+0xc6>
 80002ea:	014b      	lsls	r3, r1, #5
 80002ec:	1ac0      	subs	r0, r0, r3
 80002ee:	4152      	adcs	r2, r2
 80002f0:	0903      	lsrs	r3, r0, #4
 80002f2:	428b      	cmp	r3, r1
 80002f4:	d301      	bcc.n	80002fa <__divsi3+0xd2>
 80002f6:	010b      	lsls	r3, r1, #4
 80002f8:	1ac0      	subs	r0, r0, r3
 80002fa:	4152      	adcs	r2, r2
 80002fc:	08c3      	lsrs	r3, r0, #3
 80002fe:	428b      	cmp	r3, r1
 8000300:	d301      	bcc.n	8000306 <__divsi3+0xde>
 8000302:	00cb      	lsls	r3, r1, #3
 8000304:	1ac0      	subs	r0, r0, r3
 8000306:	4152      	adcs	r2, r2
 8000308:	0883      	lsrs	r3, r0, #2
 800030a:	428b      	cmp	r3, r1
 800030c:	d301      	bcc.n	8000312 <__divsi3+0xea>
 800030e:	008b      	lsls	r3, r1, #2
 8000310:	1ac0      	subs	r0, r0, r3
 8000312:	4152      	adcs	r2, r2
 8000314:	0843      	lsrs	r3, r0, #1
 8000316:	428b      	cmp	r3, r1
 8000318:	d301      	bcc.n	800031e <__divsi3+0xf6>
 800031a:	004b      	lsls	r3, r1, #1
 800031c:	1ac0      	subs	r0, r0, r3
 800031e:	4152      	adcs	r2, r2
 8000320:	1a41      	subs	r1, r0, r1
 8000322:	d200      	bcs.n	8000326 <__divsi3+0xfe>
 8000324:	4601      	mov	r1, r0
 8000326:	4152      	adcs	r2, r2
 8000328:	4610      	mov	r0, r2
 800032a:	4770      	bx	lr
 800032c:	e05d      	b.n	80003ea <__divsi3+0x1c2>
 800032e:	0fca      	lsrs	r2, r1, #31
 8000330:	d000      	beq.n	8000334 <__divsi3+0x10c>
 8000332:	4249      	negs	r1, r1
 8000334:	1003      	asrs	r3, r0, #32
 8000336:	d300      	bcc.n	800033a <__divsi3+0x112>
 8000338:	4240      	negs	r0, r0
 800033a:	4053      	eors	r3, r2
 800033c:	2200      	movs	r2, #0
 800033e:	469c      	mov	ip, r3
 8000340:	0903      	lsrs	r3, r0, #4
 8000342:	428b      	cmp	r3, r1
 8000344:	d32d      	bcc.n	80003a2 <__divsi3+0x17a>
 8000346:	0a03      	lsrs	r3, r0, #8
 8000348:	428b      	cmp	r3, r1
 800034a:	d312      	bcc.n	8000372 <__divsi3+0x14a>
 800034c:	22fc      	movs	r2, #252	; 0xfc
 800034e:	0189      	lsls	r1, r1, #6
 8000350:	ba12      	rev	r2, r2
 8000352:	0a03      	lsrs	r3, r0, #8
 8000354:	428b      	cmp	r3, r1
 8000356:	d30c      	bcc.n	8000372 <__divsi3+0x14a>
 8000358:	0189      	lsls	r1, r1, #6
 800035a:	1192      	asrs	r2, r2, #6
 800035c:	428b      	cmp	r3, r1
 800035e:	d308      	bcc.n	8000372 <__divsi3+0x14a>
 8000360:	0189      	lsls	r1, r1, #6
 8000362:	1192      	asrs	r2, r2, #6
 8000364:	428b      	cmp	r3, r1
 8000366:	d304      	bcc.n	8000372 <__divsi3+0x14a>
 8000368:	0189      	lsls	r1, r1, #6
 800036a:	d03a      	beq.n	80003e2 <__divsi3+0x1ba>
 800036c:	1192      	asrs	r2, r2, #6
 800036e:	e000      	b.n	8000372 <__divsi3+0x14a>
 8000370:	0989      	lsrs	r1, r1, #6
 8000372:	09c3      	lsrs	r3, r0, #7
 8000374:	428b      	cmp	r3, r1
 8000376:	d301      	bcc.n	800037c <__divsi3+0x154>
 8000378:	01cb      	lsls	r3, r1, #7
 800037a:	1ac0      	subs	r0, r0, r3
 800037c:	4152      	adcs	r2, r2
 800037e:	0983      	lsrs	r3, r0, #6
 8000380:	428b      	cmp	r3, r1
 8000382:	d301      	bcc.n	8000388 <__divsi3+0x160>
 8000384:	018b      	lsls	r3, r1, #6
 8000386:	1ac0      	subs	r0, r0, r3
 8000388:	4152      	adcs	r2, r2
 800038a:	0943      	lsrs	r3, r0, #5
 800038c:	428b      	cmp	r3, r1
 800038e:	d301      	bcc.n	8000394 <__divsi3+0x16c>
 8000390:	014b      	lsls	r3, r1, #5
 8000392:	1ac0      	subs	r0, r0, r3
 8000394:	4152      	adcs	r2, r2
 8000396:	0903      	lsrs	r3, r0, #4
 8000398:	428b      	cmp	r3, r1
 800039a:	d301      	bcc.n	80003a0 <__divsi3+0x178>
 800039c:	010b      	lsls	r3, r1, #4
 800039e:	1ac0      	subs	r0, r0, r3
 80003a0:	4152      	adcs	r2, r2
 80003a2:	08c3      	lsrs	r3, r0, #3
 80003a4:	428b      	cmp	r3, r1
 80003a6:	d301      	bcc.n	80003ac <__divsi3+0x184>
 80003a8:	00cb      	lsls	r3, r1, #3
 80003aa:	1ac0      	subs	r0, r0, r3
 80003ac:	4152      	adcs	r2, r2
 80003ae:	0883      	lsrs	r3, r0, #2
 80003b0:	428b      	cmp	r3, r1
 80003b2:	d301      	bcc.n	80003b8 <__divsi3+0x190>
 80003b4:	008b      	lsls	r3, r1, #2
 80003b6:	1ac0      	subs	r0, r0, r3
 80003b8:	4152      	adcs	r2, r2
 80003ba:	d2d9      	bcs.n	8000370 <__divsi3+0x148>
 80003bc:	0843      	lsrs	r3, r0, #1
 80003be:	428b      	cmp	r3, r1
 80003c0:	d301      	bcc.n	80003c6 <__divsi3+0x19e>
 80003c2:	004b      	lsls	r3, r1, #1
 80003c4:	1ac0      	subs	r0, r0, r3
 80003c6:	4152      	adcs	r2, r2
 80003c8:	1a41      	subs	r1, r0, r1
 80003ca:	d200      	bcs.n	80003ce <__divsi3+0x1a6>
 80003cc:	4601      	mov	r1, r0
 80003ce:	4663      	mov	r3, ip
 80003d0:	4152      	adcs	r2, r2
 80003d2:	105b      	asrs	r3, r3, #1
 80003d4:	4610      	mov	r0, r2
 80003d6:	d301      	bcc.n	80003dc <__divsi3+0x1b4>
 80003d8:	4240      	negs	r0, r0
 80003da:	2b00      	cmp	r3, #0
 80003dc:	d500      	bpl.n	80003e0 <__divsi3+0x1b8>
 80003de:	4249      	negs	r1, r1
 80003e0:	4770      	bx	lr
 80003e2:	4663      	mov	r3, ip
 80003e4:	105b      	asrs	r3, r3, #1
 80003e6:	d300      	bcc.n	80003ea <__divsi3+0x1c2>
 80003e8:	4240      	negs	r0, r0
 80003ea:	b501      	push	{r0, lr}
 80003ec:	2000      	movs	r0, #0
 80003ee:	f000 f805 	bl	80003fc <__aeabi_idiv0>
 80003f2:	bd02      	pop	{r1, pc}

080003f4 <__aeabi_idivmod>:
 80003f4:	2900      	cmp	r1, #0
 80003f6:	d0f8      	beq.n	80003ea <__divsi3+0x1c2>
 80003f8:	e716      	b.n	8000228 <__divsi3>
 80003fa:	4770      	bx	lr

080003fc <__aeabi_idiv0>:
 80003fc:	4770      	bx	lr
 80003fe:	46c0      	nop			; (mov r8, r8)

08000400 <MX_ADC1_Init>:
 8000400:	b51f      	push	{r0, r1, r2, r3, r4, lr}
 8000402:	220c      	movs	r2, #12
 8000404:	2100      	movs	r1, #0
 8000406:	a801      	add	r0, sp, #4
 8000408:	f003 fd92 	bl	8003f30 <memset>
 800040c:	4c19      	ldr	r4, [pc, #100]	; (8000474 <MX_ADC1_Init+0x74>)
 800040e:	4b1a      	ldr	r3, [pc, #104]	; (8000478 <MX_ADC1_Init+0x78>)
 8000410:	2204      	movs	r2, #4
 8000412:	6023      	str	r3, [r4, #0]
 8000414:	2380      	movs	r3, #128	; 0x80
 8000416:	05db      	lsls	r3, r3, #23
 8000418:	6063      	str	r3, [r4, #4]
 800041a:	2300      	movs	r3, #0
 800041c:	6162      	str	r2, [r4, #20]
 800041e:	3a03      	subs	r2, #3
 8000420:	61e2      	str	r2, [r4, #28]
 8000422:	18a2      	adds	r2, r4, r2
 8000424:	77d3      	strb	r3, [r2, #31]
 8000426:	0022      	movs	r2, r4
 8000428:	322c      	adds	r2, #44	; 0x2c
 800042a:	7013      	strb	r3, [r2, #0]
 800042c:	0022      	movs	r2, r4
 800042e:	0020      	movs	r0, r4
 8000430:	323c      	adds	r2, #60	; 0x3c
 8000432:	8323      	strh	r3, [r4, #24]
 8000434:	60a3      	str	r3, [r4, #8]
 8000436:	60e3      	str	r3, [r4, #12]
 8000438:	6123      	str	r3, [r4, #16]
 800043a:	76a3      	strb	r3, [r4, #26]
 800043c:	6263      	str	r3, [r4, #36]	; 0x24
 800043e:	62a3      	str	r3, [r4, #40]	; 0x28
 8000440:	6323      	str	r3, [r4, #48]	; 0x30
 8000442:	6363      	str	r3, [r4, #52]	; 0x34
 8000444:	63a3      	str	r3, [r4, #56]	; 0x38
 8000446:	7013      	strb	r3, [r2, #0]
 8000448:	64e3      	str	r3, [r4, #76]	; 0x4c
 800044a:	f000 fbf5 	bl	8000c38 <HAL_ADC_Init>
 800044e:	2800      	cmp	r0, #0
 8000450:	d001      	beq.n	8000456 <MX_ADC1_Init+0x56>
 8000452:	f000 f991 	bl	8000778 <Error_Handler>
 8000456:	4b09      	ldr	r3, [pc, #36]	; (800047c <MX_ADC1_Init+0x7c>)
 8000458:	0020      	movs	r0, r4
 800045a:	9301      	str	r3, [sp, #4]
 800045c:	2300      	movs	r3, #0
 800045e:	a901      	add	r1, sp, #4
 8000460:	9302      	str	r3, [sp, #8]
 8000462:	9303      	str	r3, [sp, #12]
 8000464:	f000 fd62 	bl	8000f2c <HAL_ADC_ConfigChannel>
 8000468:	2800      	cmp	r0, #0
 800046a:	d001      	beq.n	8000470 <MX_ADC1_Init+0x70>
 800046c:	f000 f984 	bl	8000778 <Error_Handler>
 8000470:	bd1f      	pop	{r0, r1, r2, r3, r4, pc}
 8000472:	46c0      	nop			; (mov r8, r8)
 8000474:	20000030 	.word	0x20000030
 8000478:	40012400 	.word	0x40012400
 800047c:	04000002 	.word	0x04000002

08000480 <HAL_ADC_MspInit>:
 8000480:	b510      	push	{r4, lr}
 8000482:	0004      	movs	r4, r0
 8000484:	b088      	sub	sp, #32
 8000486:	2214      	movs	r2, #20
 8000488:	2100      	movs	r1, #0
 800048a:	a803      	add	r0, sp, #12
 800048c:	f003 fd50 	bl	8003f30 <memset>
 8000490:	4b10      	ldr	r3, [pc, #64]	; (80004d4 <HAL_ADC_MspInit+0x54>)
 8000492:	6822      	ldr	r2, [r4, #0]
 8000494:	429a      	cmp	r2, r3
 8000496:	d11a      	bne.n	80004ce <HAL_ADC_MspInit+0x4e>
 8000498:	2180      	movs	r1, #128	; 0x80
 800049a:	4b0f      	ldr	r3, [pc, #60]	; (80004d8 <HAL_ADC_MspInit+0x58>)
 800049c:	0349      	lsls	r1, r1, #13
 800049e:	6c1a      	ldr	r2, [r3, #64]	; 0x40
 80004a0:	20a0      	movs	r0, #160	; 0xa0
 80004a2:	430a      	orrs	r2, r1
 80004a4:	641a      	str	r2, [r3, #64]	; 0x40
 80004a6:	6c1a      	ldr	r2, [r3, #64]	; 0x40
 80004a8:	05c0      	lsls	r0, r0, #23
 80004aa:	400a      	ands	r2, r1
 80004ac:	2101      	movs	r1, #1
 80004ae:	9201      	str	r2, [sp, #4]
 80004b0:	9a01      	ldr	r2, [sp, #4]
 80004b2:	6b5a      	ldr	r2, [r3, #52]	; 0x34
 80004b4:	430a      	orrs	r2, r1
 80004b6:	635a      	str	r2, [r3, #52]	; 0x34
 80004b8:	6b5b      	ldr	r3, [r3, #52]	; 0x34
 80004ba:	400b      	ands	r3, r1
 80004bc:	9302      	str	r3, [sp, #8]
 80004be:	9b02      	ldr	r3, [sp, #8]
 80004c0:	2302      	movs	r3, #2
 80004c2:	9303      	str	r3, [sp, #12]
 80004c4:	185b      	adds	r3, r3, r1
 80004c6:	a903      	add	r1, sp, #12
 80004c8:	9304      	str	r3, [sp, #16]
 80004ca:	f000 ff15 	bl	80012f8 <HAL_GPIO_Init>
 80004ce:	b008      	add	sp, #32
 80004d0:	bd10      	pop	{r4, pc}
 80004d2:	46c0      	nop			; (mov r8, r8)
 80004d4:	40012400 	.word	0x40012400
 80004d8:	40021000 	.word	0x40021000

080004dc <MX_GPIO_Init>:
 80004dc:	b5f0      	push	{r4, r5, r6, r7, lr}
 80004de:	b089      	sub	sp, #36	; 0x24
 80004e0:	2214      	movs	r2, #20
 80004e2:	2100      	movs	r1, #0
 80004e4:	a803      	add	r0, sp, #12
 80004e6:	f003 fd23 	bl	8003f30 <memset>
 80004ea:	2102      	movs	r1, #2
 80004ec:	2601      	movs	r6, #1
 80004ee:	4b29      	ldr	r3, [pc, #164]	; (8000594 <MX_GPIO_Init+0xb8>)
 80004f0:	4c29      	ldr	r4, [pc, #164]	; (8000598 <MX_GPIO_Init+0xbc>)
 80004f2:	6b5a      	ldr	r2, [r3, #52]	; 0x34
 80004f4:	4f29      	ldr	r7, [pc, #164]	; (800059c <MX_GPIO_Init+0xc0>)
 80004f6:	430a      	orrs	r2, r1
 80004f8:	635a      	str	r2, [r3, #52]	; 0x34
 80004fa:	6b5a      	ldr	r2, [r3, #52]	; 0x34
 80004fc:	0038      	movs	r0, r7
 80004fe:	400a      	ands	r2, r1
 8000500:	9200      	str	r2, [sp, #0]
 8000502:	9a00      	ldr	r2, [sp, #0]
 8000504:	6b5a      	ldr	r2, [r3, #52]	; 0x34
 8000506:	1849      	adds	r1, r1, r1
 8000508:	430a      	orrs	r2, r1
 800050a:	635a      	str	r2, [r3, #52]	; 0x34
 800050c:	6b5a      	ldr	r2, [r3, #52]	; 0x34
 800050e:	25a0      	movs	r5, #160	; 0xa0
 8000510:	400a      	ands	r2, r1
 8000512:	9201      	str	r2, [sp, #4]
 8000514:	9a01      	ldr	r2, [sp, #4]
 8000516:	6b5a      	ldr	r2, [r3, #52]	; 0x34
 8000518:	0021      	movs	r1, r4
 800051a:	4332      	orrs	r2, r6
 800051c:	635a      	str	r2, [r3, #52]	; 0x34
 800051e:	6b5b      	ldr	r3, [r3, #52]	; 0x34
 8000520:	2200      	movs	r2, #0
 8000522:	4033      	ands	r3, r6
 8000524:	9302      	str	r3, [sp, #8]
 8000526:	9b02      	ldr	r3, [sp, #8]
 8000528:	f000 ff98 	bl	800145c <HAL_GPIO_WritePin>
 800052c:	2180      	movs	r1, #128	; 0x80
 800052e:	05ed      	lsls	r5, r5, #23
 8000530:	2200      	movs	r2, #0
 8000532:	481b      	ldr	r0, [pc, #108]	; (80005a0 <MX_GPIO_Init+0xc4>)
 8000534:	0209      	lsls	r1, r1, #8
 8000536:	f000 ff91 	bl	800145c <HAL_GPIO_WritePin>
 800053a:	2200      	movs	r2, #0
 800053c:	0028      	movs	r0, r5
 800053e:	4919      	ldr	r1, [pc, #100]	; (80005a4 <MX_GPIO_Init+0xc8>)
 8000540:	f000 ff8c 	bl	800145c <HAL_GPIO_WritePin>
 8000544:	9403      	str	r4, [sp, #12]
 8000546:	2400      	movs	r4, #0
 8000548:	0038      	movs	r0, r7
 800054a:	a903      	add	r1, sp, #12
 800054c:	9604      	str	r6, [sp, #16]
 800054e:	9405      	str	r4, [sp, #20]
 8000550:	9406      	str	r4, [sp, #24]
 8000552:	f000 fed1 	bl	80012f8 <HAL_GPIO_Init>
 8000556:	2380      	movs	r3, #128	; 0x80
 8000558:	a903      	add	r1, sp, #12
 800055a:	021b      	lsls	r3, r3, #8
 800055c:	4810      	ldr	r0, [pc, #64]	; (80005a0 <MX_GPIO_Init+0xc4>)
 800055e:	9303      	str	r3, [sp, #12]
 8000560:	9604      	str	r6, [sp, #16]
 8000562:	9405      	str	r4, [sp, #20]
 8000564:	9406      	str	r4, [sp, #24]
 8000566:	f000 fec7 	bl	80012f8 <HAL_GPIO_Init>
 800056a:	4b0e      	ldr	r3, [pc, #56]	; (80005a4 <MX_GPIO_Init+0xc8>)
 800056c:	0028      	movs	r0, r5
 800056e:	a903      	add	r1, sp, #12
 8000570:	9303      	str	r3, [sp, #12]
 8000572:	9604      	str	r6, [sp, #16]
 8000574:	9405      	str	r4, [sp, #20]
 8000576:	9406      	str	r4, [sp, #24]
 8000578:	f000 febe 	bl	80012f8 <HAL_GPIO_Init>
 800057c:	2380      	movs	r3, #128	; 0x80
 800057e:	0028      	movs	r0, r5
 8000580:	015b      	lsls	r3, r3, #5
 8000582:	a903      	add	r1, sp, #12
 8000584:	9303      	str	r3, [sp, #12]
 8000586:	9404      	str	r4, [sp, #16]
 8000588:	9405      	str	r4, [sp, #20]
 800058a:	f000 feb5 	bl	80012f8 <HAL_GPIO_Init>
 800058e:	b009      	add	sp, #36	; 0x24
 8000590:	bdf0      	pop	{r4, r5, r6, r7, pc}
 8000592:	46c0      	nop			; (mov r8, r8)
 8000594:	40021000 	.word	0x40021000
 8000598:	00000201 	.word	0x00000201
 800059c:	50000400 	.word	0x50000400
 80005a0:	50000800 	.word	0x50000800
 80005a4:	00000888 	.word	0x00000888

080005a8 <SystemClock_Config>:
 80005a8:	b510      	push	{r4, lr}
 80005aa:	b092      	sub	sp, #72	; 0x48
 80005ac:	2234      	movs	r2, #52	; 0x34
 80005ae:	2100      	movs	r1, #0
 80005b0:	a805      	add	r0, sp, #20
 80005b2:	f003 fcbd 	bl	8003f30 <memset>
 80005b6:	2210      	movs	r2, #16
 80005b8:	2100      	movs	r1, #0
 80005ba:	a801      	add	r0, sp, #4
 80005bc:	f003 fcb8 	bl	8003f30 <memset>
 80005c0:	2080      	movs	r0, #128	; 0x80
 80005c2:	0080      	lsls	r0, r0, #2
 80005c4:	f000 ff50 	bl	8001468 <HAL_PWREx_ControlVoltageScaling>
 80005c8:	2380      	movs	r3, #128	; 0x80
 80005ca:	005b      	lsls	r3, r3, #1
 80005cc:	9308      	str	r3, [sp, #32]
 80005ce:	2300      	movs	r3, #0
 80005d0:	9309      	str	r3, [sp, #36]	; 0x24
 80005d2:	930e      	str	r3, [sp, #56]	; 0x38
 80005d4:	3308      	adds	r3, #8
 80005d6:	930f      	str	r3, [sp, #60]	; 0x3c
 80005d8:	2380      	movs	r3, #128	; 0x80
 80005da:	029b      	lsls	r3, r3, #10
 80005dc:	9310      	str	r3, [sp, #64]	; 0x40
 80005de:	2380      	movs	r3, #128	; 0x80
 80005e0:	2402      	movs	r4, #2
 80005e2:	2240      	movs	r2, #64	; 0x40
 80005e4:	059b      	lsls	r3, r3, #22
 80005e6:	a805      	add	r0, sp, #20
 80005e8:	9405      	str	r4, [sp, #20]
 80005ea:	920a      	str	r2, [sp, #40]	; 0x28
 80005ec:	940c      	str	r4, [sp, #48]	; 0x30
 80005ee:	940d      	str	r4, [sp, #52]	; 0x34
 80005f0:	9311      	str	r3, [sp, #68]	; 0x44
 80005f2:	f000 ff65 	bl	80014c0 <HAL_RCC_OscConfig>
 80005f6:	2800      	cmp	r0, #0
 80005f8:	d001      	beq.n	80005fe <SystemClock_Config+0x56>
 80005fa:	b672      	cpsid	i
 80005fc:	e7fe      	b.n	80005fc <SystemClock_Config+0x54>
 80005fe:	2307      	movs	r3, #7
 8000600:	9003      	str	r0, [sp, #12]
 8000602:	9004      	str	r0, [sp, #16]
 8000604:	0021      	movs	r1, r4
 8000606:	a801      	add	r0, sp, #4
 8000608:	9301      	str	r3, [sp, #4]
 800060a:	9402      	str	r4, [sp, #8]
 800060c:	f001 f9b6 	bl	800197c <HAL_RCC_ClockConfig>
 8000610:	2800      	cmp	r0, #0
 8000612:	d001      	beq.n	8000618 <SystemClock_Config+0x70>
 8000614:	b672      	cpsid	i
 8000616:	e7fe      	b.n	8000616 <SystemClock_Config+0x6e>
 8000618:	b012      	add	sp, #72	; 0x48
 800061a:	bd10      	pop	{r4, pc}

0800061c <main>:
 800061c:	b5f0      	push	{r4, r5, r6, r7, lr}
 800061e:	b089      	sub	sp, #36	; 0x24
 8000620:	f000 face 	bl	8000bc0 <HAL_Init>
 8000624:	f7ff ffc0 	bl	80005a8 <SystemClock_Config>
 8000628:	f7ff ff58 	bl	80004dc <MX_GPIO_Init>
 800062c:	f7ff fee8 	bl	8000400 <MX_ADC1_Init>
 8000630:	f000 f8a4 	bl	800077c <MX_SPI1_Init>
 8000634:	f000 f8c8 	bl	80007c8 <MX_SPI2_Init>
 8000638:	f000 f9f8 	bl	8000a2c <MX_USART1_UART_Init>
 800063c:	f000 f99e 	bl	800097c <MX_TIM16_Init>
 8000640:	2205      	movs	r2, #5
 8000642:	4942      	ldr	r1, [pc, #264]	; (800074c <main+0x130>)
 8000644:	a804      	add	r0, sp, #16
 8000646:	f003 fc9f 	bl	8003f88 <memcpy>
 800064a:	2207      	movs	r2, #7
 800064c:	4940      	ldr	r1, [pc, #256]	; (8000750 <main+0x134>)
 800064e:	a806      	add	r0, sp, #24
 8000650:	f003 fc9a 	bl	8003f88 <memcpy>
 8000654:	f002 fe78 	bl	8003348 <DEV_Module_Init>
 8000658:	20fa      	movs	r0, #250	; 0xfa
 800065a:	0080      	lsls	r0, r0, #2
 800065c:	f003 fc62 	bl	8003f24 <LCD_1IN28_SetBackLight>
 8000660:	2001      	movs	r0, #1
 8000662:	f003 f9b5 	bl	80039d0 <LCD_1IN28_Init>
 8000666:	2300      	movs	r3, #0
 8000668:	21f0      	movs	r1, #240	; 0xf0
 800066a:	2600      	movs	r6, #0
 800066c:	001a      	movs	r2, r3
 800066e:	0008      	movs	r0, r1
 8000670:	f002 fe8a 	bl	8003388 <Paint_NewImage>
 8000674:	4837      	ldr	r0, [pc, #220]	; (8000754 <main+0x138>)
 8000676:	f002 fe9d 	bl	80033b4 <Paint_SetClearFuntion>
 800067a:	4837      	ldr	r0, [pc, #220]	; (8000758 <main+0x13c>)
 800067c:	f002 fea0 	bl	80033c0 <Paint_SetDisplayFuntion>
 8000680:	4c36      	ldr	r4, [pc, #216]	; (800075c <main+0x140>)
 8000682:	4b37      	ldr	r3, [pc, #220]	; (8000760 <main+0x144>)
 8000684:	4d37      	ldr	r5, [pc, #220]	; (8000764 <main+0x148>)
 8000686:	2164      	movs	r1, #100	; 0x64
 8000688:	4a37      	ldr	r2, [pc, #220]	; (8000768 <main+0x14c>)
 800068a:	2046      	movs	r0, #70	; 0x46
 800068c:	9301      	str	r3, [sp, #4]
 800068e:	9600      	str	r6, [sp, #0]
 8000690:	0023      	movs	r3, r4
 8000692:	f003 f8ab 	bl	80037ec <Paint_DrawString_EN>
 8000696:	0028      	movs	r0, r5
 8000698:	f002 fee8 	bl	800346c <Paint_Clear>
 800069c:	2064      	movs	r0, #100	; 0x64
 800069e:	f000 fab5 	bl	8000c0c <HAL_Delay>
 80006a2:	2302      	movs	r3, #2
 80006a4:	2173      	movs	r1, #115	; 0x73
 80006a6:	9301      	str	r3, [sp, #4]
 80006a8:	4b30      	ldr	r3, [pc, #192]	; (800076c <main+0x150>)
 80006aa:	0008      	movs	r0, r1
 80006ac:	2288      	movs	r2, #136	; 0x88
 80006ae:	9602      	str	r6, [sp, #8]
 80006b0:	9300      	str	r3, [sp, #0]
 80006b2:	238d      	movs	r3, #141	; 0x8d
 80006b4:	f002 ffda 	bl	800366c <Paint_DrawRectangle>
 80006b8:	2178      	movs	r1, #120	; 0x78
 80006ba:	4b2d      	ldr	r3, [pc, #180]	; (8000770 <main+0x154>)
 80006bc:	0032      	movs	r2, r6
 80006be:	0008      	movs	r0, r1
 80006c0:	9301      	str	r3, [sp, #4]
 80006c2:	9500      	str	r5, [sp, #0]
 80006c4:	0023      	movs	r3, r4
 80006c6:	f003 f8cf 	bl	8003868 <Paint_DrawNum>
 80006ca:	4f2a      	ldr	r7, [pc, #168]	; (8000774 <main+0x158>)
 80006cc:	0038      	movs	r0, r7
 80006ce:	f000 fda1 	bl	8001214 <HAL_ADC_Start>
 80006d2:	2101      	movs	r1, #1
 80006d4:	0038      	movs	r0, r7
 80006d6:	4249      	negs	r1, r1
 80006d8:	f000 fbc0 	bl	8000e5c <HAL_ADC_PollForConversion>
 80006dc:	0038      	movs	r0, r7
 80006de:	f000 fc21 	bl	8000f24 <HAL_ADC_GetValue>
 80006e2:	0007      	movs	r7, r0
 80006e4:	2374      	movs	r3, #116	; 0x74
 80006e6:	22a4      	movs	r2, #164	; 0xa4
 80006e8:	2164      	movs	r1, #100	; 0x64
 80006ea:	2078      	movs	r0, #120	; 0x78
 80006ec:	9600      	str	r6, [sp, #0]
 80006ee:	f002 fec5 	bl	800347c <Paint_ClearWindows>
 80006f2:	4b1f      	ldr	r3, [pc, #124]	; (8000770 <main+0x154>)
 80006f4:	003a      	movs	r2, r7
 80006f6:	001e      	movs	r6, r3
 80006f8:	2164      	movs	r1, #100	; 0x64
 80006fa:	2078      	movs	r0, #120	; 0x78
 80006fc:	9301      	str	r3, [sp, #4]
 80006fe:	9500      	str	r5, [sp, #0]
 8000700:	0023      	movs	r3, r4
 8000702:	f003 f8b1 	bl	8003868 <Paint_DrawNum>
 8000706:	2178      	movs	r1, #120	; 0x78
 8000708:	0023      	movs	r3, r4
 800070a:	0008      	movs	r0, r1
 800070c:	2201      	movs	r2, #1
 800070e:	9500      	str	r5, [sp, #0]
 8000710:	9601      	str	r6, [sp, #4]
 8000712:	f003 f8a9 	bl	8003868 <Paint_DrawNum>
 8000716:	20fa      	movs	r0, #250	; 0xfa
 8000718:	f000 fa78 	bl	8000c0c <HAL_Delay>
 800071c:	25a0      	movs	r5, #160	; 0xa0
 800071e:	f002 fd7f 	bl	8003220 <nrf_init>
 8000722:	24fa      	movs	r4, #250	; 0xfa
 8000724:	210a      	movs	r1, #10
 8000726:	a804      	add	r0, sp, #16
 8000728:	f002 fda6 	bl	8003278 <nrf_tx_mode>
 800072c:	05ed      	lsls	r5, r5, #23
 800072e:	00a4      	lsls	r4, r4, #2
 8000730:	a806      	add	r0, sp, #24
 8000732:	f002 fdc5 	bl	80032c0 <nrf_transmit>
 8000736:	2801      	cmp	r0, #1
 8000738:	d104      	bne.n	8000744 <main+0x128>
 800073a:	2200      	movs	r2, #0
 800073c:	2180      	movs	r1, #128	; 0x80
 800073e:	0028      	movs	r0, r5
 8000740:	f000 fe8c 	bl	800145c <HAL_GPIO_WritePin>
 8000744:	0020      	movs	r0, r4
 8000746:	f000 fa61 	bl	8000c0c <HAL_Delay>
 800074a:	e7f1      	b.n	8000730 <main+0x114>
 800074c:	08003fbf 	.word	0x08003fbf
 8000750:	08003fc5 	.word	0x08003fc5
 8000754:	08003ee3 	.word	0x08003ee3
 8000758:	08003f11 	.word	0x08003f11
 800075c:	2000000c 	.word	0x2000000c
 8000760:	0000ab84 	.word	0x0000ab84
 8000764:	00000908 	.word	0x00000908
 8000768:	08003fb4 	.word	0x08003fb4
 800076c:	00006862 	.word	0x00006862
 8000770:	00004c42 	.word	0x00004c42
 8000774:	20000030 	.word	0x20000030

08000778 <Error_Handler>:
 8000778:	b672      	cpsid	i
 800077a:	e7fe      	b.n	800077a <Error_Handler+0x2>

0800077c <MX_SPI1_Init>:
 800077c:	4810      	ldr	r0, [pc, #64]	; (80007c0 <MX_SPI1_Init+0x44>)
 800077e:	4b11      	ldr	r3, [pc, #68]	; (80007c4 <MX_SPI1_Init+0x48>)
 8000780:	22e0      	movs	r2, #224	; 0xe0
 8000782:	b510      	push	{r4, lr}
 8000784:	6003      	str	r3, [r0, #0]
 8000786:	2382      	movs	r3, #130	; 0x82
 8000788:	00d2      	lsls	r2, r2, #3
 800078a:	60c2      	str	r2, [r0, #12]
 800078c:	2280      	movs	r2, #128	; 0x80
 800078e:	005b      	lsls	r3, r3, #1
 8000790:	6043      	str	r3, [r0, #4]
 8000792:	2300      	movs	r3, #0
 8000794:	0092      	lsls	r2, r2, #2
 8000796:	6182      	str	r2, [r0, #24]
 8000798:	3afa      	subs	r2, #250	; 0xfa
 800079a:	6083      	str	r3, [r0, #8]
 800079c:	6103      	str	r3, [r0, #16]
 800079e:	6143      	str	r3, [r0, #20]
 80007a0:	61c3      	str	r3, [r0, #28]
 80007a2:	6203      	str	r3, [r0, #32]
 80007a4:	6243      	str	r3, [r0, #36]	; 0x24
 80007a6:	6283      	str	r3, [r0, #40]	; 0x28
 80007a8:	3aff      	subs	r2, #255	; 0xff
 80007aa:	6303      	str	r3, [r0, #48]	; 0x30
 80007ac:	3308      	adds	r3, #8
 80007ae:	62c2      	str	r2, [r0, #44]	; 0x2c
 80007b0:	6343      	str	r3, [r0, #52]	; 0x34
 80007b2:	f001 fb77 	bl	8001ea4 <HAL_SPI_Init>
 80007b6:	2800      	cmp	r0, #0
 80007b8:	d001      	beq.n	80007be <MX_SPI1_Init+0x42>
 80007ba:	f7ff ffdd 	bl	8000778 <Error_Handler>
 80007be:	bd10      	pop	{r4, pc}
 80007c0:	20000094 	.word	0x20000094
 80007c4:	40013000 	.word	0x40013000

080007c8 <MX_SPI2_Init>:
 80007c8:	22e0      	movs	r2, #224	; 0xe0
 80007ca:	4810      	ldr	r0, [pc, #64]	; (800080c <MX_SPI2_Init+0x44>)
 80007cc:	4b10      	ldr	r3, [pc, #64]	; (8000810 <MX_SPI2_Init+0x48>)
 80007ce:	b510      	push	{r4, lr}
 80007d0:	6003      	str	r3, [r0, #0]
 80007d2:	2382      	movs	r3, #130	; 0x82
 80007d4:	00d2      	lsls	r2, r2, #3
 80007d6:	60c2      	str	r2, [r0, #12]
 80007d8:	2280      	movs	r2, #128	; 0x80
 80007da:	005b      	lsls	r3, r3, #1
 80007dc:	6043      	str	r3, [r0, #4]
 80007de:	2300      	movs	r3, #0
 80007e0:	0092      	lsls	r2, r2, #2
 80007e2:	6182      	str	r2, [r0, #24]
 80007e4:	3af9      	subs	r2, #249	; 0xf9
 80007e6:	3aff      	subs	r2, #255	; 0xff
 80007e8:	61c2      	str	r2, [r0, #28]
 80007ea:	3a01      	subs	r2, #1
 80007ec:	6083      	str	r3, [r0, #8]
 80007ee:	6103      	str	r3, [r0, #16]
 80007f0:	6143      	str	r3, [r0, #20]
 80007f2:	6203      	str	r3, [r0, #32]
 80007f4:	6243      	str	r3, [r0, #36]	; 0x24
 80007f6:	6283      	str	r3, [r0, #40]	; 0x28
 80007f8:	62c2      	str	r2, [r0, #44]	; 0x2c
 80007fa:	6303      	str	r3, [r0, #48]	; 0x30
 80007fc:	6343      	str	r3, [r0, #52]	; 0x34
 80007fe:	f001 fb51 	bl	8001ea4 <HAL_SPI_Init>
 8000802:	2800      	cmp	r0, #0
 8000804:	d001      	beq.n	800080a <MX_SPI2_Init+0x42>
 8000806:	f7ff ffb7 	bl	8000778 <Error_Handler>
 800080a:	bd10      	pop	{r4, pc}
 800080c:	200000f8 	.word	0x200000f8
 8000810:	40003800 	.word	0x40003800

08000814 <HAL_SPI_MspInit>:
 8000814:	b530      	push	{r4, r5, lr}
 8000816:	0004      	movs	r4, r0
 8000818:	b08b      	sub	sp, #44	; 0x2c
 800081a:	2214      	movs	r2, #20
 800081c:	2100      	movs	r1, #0
 800081e:	a805      	add	r0, sp, #20
 8000820:	f003 fb86 	bl	8003f30 <memset>
 8000824:	6823      	ldr	r3, [r4, #0]
 8000826:	4a23      	ldr	r2, [pc, #140]	; (80008b4 <HAL_SPI_MspInit+0xa0>)
 8000828:	4293      	cmp	r3, r2
 800082a:	d11c      	bne.n	8000866 <HAL_SPI_MspInit+0x52>
 800082c:	2180      	movs	r1, #128	; 0x80
 800082e:	4b22      	ldr	r3, [pc, #136]	; (80008b8 <HAL_SPI_MspInit+0xa4>)
 8000830:	0149      	lsls	r1, r1, #5
 8000832:	6c1a      	ldr	r2, [r3, #64]	; 0x40
 8000834:	430a      	orrs	r2, r1
 8000836:	641a      	str	r2, [r3, #64]	; 0x40
 8000838:	6c1a      	ldr	r2, [r3, #64]	; 0x40
 800083a:	400a      	ands	r2, r1
 800083c:	2101      	movs	r1, #1
 800083e:	9201      	str	r2, [sp, #4]
 8000840:	9a01      	ldr	r2, [sp, #4]
 8000842:	6b5a      	ldr	r2, [r3, #52]	; 0x34
 8000844:	430a      	orrs	r2, r1
 8000846:	635a      	str	r2, [r3, #52]	; 0x34
 8000848:	6b5b      	ldr	r3, [r3, #52]	; 0x34
 800084a:	400b      	ands	r3, r1
 800084c:	9302      	str	r3, [sp, #8]
 800084e:	9b02      	ldr	r3, [sp, #8]
 8000850:	2364      	movs	r3, #100	; 0x64
 8000852:	9305      	str	r3, [sp, #20]
 8000854:	3b62      	subs	r3, #98	; 0x62
 8000856:	9306      	str	r3, [sp, #24]
 8000858:	20a0      	movs	r0, #160	; 0xa0
 800085a:	a905      	add	r1, sp, #20
 800085c:	05c0      	lsls	r0, r0, #23
 800085e:	f000 fd4b 	bl	80012f8 <HAL_GPIO_Init>
 8000862:	b00b      	add	sp, #44	; 0x2c
 8000864:	bd30      	pop	{r4, r5, pc}
 8000866:	4a15      	ldr	r2, [pc, #84]	; (80008bc <HAL_SPI_MspInit+0xa8>)
 8000868:	4293      	cmp	r3, r2
 800086a:	d1fa      	bne.n	8000862 <HAL_SPI_MspInit+0x4e>
 800086c:	2180      	movs	r1, #128	; 0x80
 800086e:	2401      	movs	r4, #1
 8000870:	20a0      	movs	r0, #160	; 0xa0
 8000872:	2502      	movs	r5, #2
 8000874:	4b10      	ldr	r3, [pc, #64]	; (80008b8 <HAL_SPI_MspInit+0xa4>)
 8000876:	01c9      	lsls	r1, r1, #7
 8000878:	6bda      	ldr	r2, [r3, #60]	; 0x3c
 800087a:	05c0      	lsls	r0, r0, #23
 800087c:	430a      	orrs	r2, r1
 800087e:	63da      	str	r2, [r3, #60]	; 0x3c
 8000880:	6bda      	ldr	r2, [r3, #60]	; 0x3c
 8000882:	400a      	ands	r2, r1
 8000884:	9203      	str	r2, [sp, #12]
 8000886:	9a03      	ldr	r2, [sp, #12]
 8000888:	6b5a      	ldr	r2, [r3, #52]	; 0x34
 800088a:	a905      	add	r1, sp, #20
 800088c:	4322      	orrs	r2, r4
 800088e:	635a      	str	r2, [r3, #52]	; 0x34
 8000890:	6b5b      	ldr	r3, [r3, #52]	; 0x34
 8000892:	9405      	str	r4, [sp, #20]
 8000894:	4023      	ands	r3, r4
 8000896:	9304      	str	r3, [sp, #16]
 8000898:	9b04      	ldr	r3, [sp, #16]
 800089a:	9506      	str	r5, [sp, #24]
 800089c:	9508      	str	r5, [sp, #32]
 800089e:	f000 fd2b 	bl	80012f8 <HAL_GPIO_Init>
 80008a2:	2310      	movs	r3, #16
 80008a4:	9305      	str	r3, [sp, #20]
 80008a6:	2300      	movs	r3, #0
 80008a8:	9506      	str	r5, [sp, #24]
 80008aa:	9307      	str	r3, [sp, #28]
 80008ac:	9508      	str	r5, [sp, #32]
 80008ae:	9409      	str	r4, [sp, #36]	; 0x24
 80008b0:	e7d2      	b.n	8000858 <HAL_SPI_MspInit+0x44>
 80008b2:	46c0      	nop			; (mov r8, r8)
 80008b4:	40013000 	.word	0x40013000
 80008b8:	40021000 	.word	0x40021000
 80008bc:	40003800 	.word	0x40003800

080008c0 <HAL_MspInit>:
 80008c0:	2101      	movs	r1, #1
 80008c2:	4b0a      	ldr	r3, [pc, #40]	; (80008ec <HAL_MspInit+0x2c>)
 80008c4:	b082      	sub	sp, #8
 80008c6:	6c1a      	ldr	r2, [r3, #64]	; 0x40
 80008c8:	430a      	orrs	r2, r1
 80008ca:	641a      	str	r2, [r3, #64]	; 0x40
 80008cc:	6c1a      	ldr	r2, [r3, #64]	; 0x40
 80008ce:	400a      	ands	r2, r1
 80008d0:	2180      	movs	r1, #128	; 0x80
 80008d2:	9200      	str	r2, [sp, #0]
 80008d4:	9a00      	ldr	r2, [sp, #0]
 80008d6:	6bda      	ldr	r2, [r3, #60]	; 0x3c
 80008d8:	0549      	lsls	r1, r1, #21
 80008da:	430a      	orrs	r2, r1
 80008dc:	63da      	str	r2, [r3, #60]	; 0x3c
 80008de:	6bdb      	ldr	r3, [r3, #60]	; 0x3c
 80008e0:	400b      	ands	r3, r1
 80008e2:	9301      	str	r3, [sp, #4]
 80008e4:	9b01      	ldr	r3, [sp, #4]
 80008e6:	b002      	add	sp, #8
 80008e8:	4770      	bx	lr
 80008ea:	46c0      	nop			; (mov r8, r8)
 80008ec:	40021000 	.word	0x40021000

080008f0 <NMI_Handler>:
 80008f0:	e7fe      	b.n	80008f0 <NMI_Handler>

080008f2 <HardFault_Handler>:
 80008f2:	e7fe      	b.n	80008f2 <HardFault_Handler>

080008f4 <SVC_Handler>:
 80008f4:	4770      	bx	lr

080008f6 <PendSV_Handler>:
 80008f6:	4770      	bx	lr

080008f8 <SysTick_Handler>:
 80008f8:	b510      	push	{r4, lr}
 80008fa:	f000 f975 	bl	8000be8 <HAL_IncTick>
 80008fe:	bd10      	pop	{r4, pc}

08000900 <SystemInit>:
 8000900:	4770      	bx	lr
	...

08000904 <HAL_TIM_Base_MspInit>:
 8000904:	4b08      	ldr	r3, [pc, #32]	; (8000928 <HAL_TIM_Base_MspInit+0x24>)
 8000906:	6802      	ldr	r2, [r0, #0]
 8000908:	b082      	sub	sp, #8
 800090a:	429a      	cmp	r2, r3
 800090c:	d109      	bne.n	8000922 <HAL_TIM_Base_MspInit+0x1e>
 800090e:	2180      	movs	r1, #128	; 0x80
 8000910:	4b06      	ldr	r3, [pc, #24]	; (800092c <HAL_TIM_Base_MspInit+0x28>)
 8000912:	0289      	lsls	r1, r1, #10
 8000914:	6c1a      	ldr	r2, [r3, #64]	; 0x40
 8000916:	430a      	orrs	r2, r1
 8000918:	641a      	str	r2, [r3, #64]	; 0x40
 800091a:	6c1b      	ldr	r3, [r3, #64]	; 0x40
 800091c:	400b      	ands	r3, r1
 800091e:	9301      	str	r3, [sp, #4]
 8000920:	9b01      	ldr	r3, [sp, #4]
 8000922:	b002      	add	sp, #8
 8000924:	4770      	bx	lr
 8000926:	46c0      	nop			; (mov r8, r8)
 8000928:	40014400 	.word	0x40014400
 800092c:	40021000 	.word	0x40021000

08000930 <HAL_TIM_MspPostInit>:
 8000930:	b510      	push	{r4, lr}
 8000932:	0004      	movs	r4, r0
 8000934:	b086      	sub	sp, #24
 8000936:	2214      	movs	r2, #20
 8000938:	2100      	movs	r1, #0
 800093a:	a801      	add	r0, sp, #4
 800093c:	f003 faf8 	bl	8003f30 <memset>
 8000940:	4b0b      	ldr	r3, [pc, #44]	; (8000970 <HAL_TIM_MspPostInit+0x40>)
 8000942:	6822      	ldr	r2, [r4, #0]
 8000944:	429a      	cmp	r2, r3
 8000946:	d111      	bne.n	800096c <HAL_TIM_MspPostInit+0x3c>
 8000948:	2302      	movs	r3, #2
 800094a:	4a0a      	ldr	r2, [pc, #40]	; (8000974 <HAL_TIM_MspPostInit+0x44>)
 800094c:	480a      	ldr	r0, [pc, #40]	; (8000978 <HAL_TIM_MspPostInit+0x48>)
 800094e:	6b51      	ldr	r1, [r2, #52]	; 0x34
 8000950:	4319      	orrs	r1, r3
 8000952:	6351      	str	r1, [r2, #52]	; 0x34
 8000954:	6b52      	ldr	r2, [r2, #52]	; 0x34
 8000956:	a901      	add	r1, sp, #4
 8000958:	401a      	ands	r2, r3
 800095a:	9200      	str	r2, [sp, #0]
 800095c:	9a00      	ldr	r2, [sp, #0]
 800095e:	2280      	movs	r2, #128	; 0x80
 8000960:	0052      	lsls	r2, r2, #1
 8000962:	9201      	str	r2, [sp, #4]
 8000964:	9302      	str	r3, [sp, #8]
 8000966:	9305      	str	r3, [sp, #20]
 8000968:	f000 fcc6 	bl	80012f8 <HAL_GPIO_Init>
 800096c:	b006      	add	sp, #24
 800096e:	bd10      	pop	{r4, pc}
 8000970:	40014400 	.word	0x40014400
 8000974:	40021000 	.word	0x40021000
 8000978:	50000400 	.word	0x50000400

0800097c <MX_TIM16_Init>:
 800097c:	b530      	push	{r4, r5, lr}
 800097e:	b095      	sub	sp, #84	; 0x54
 8000980:	221c      	movs	r2, #28
 8000982:	2100      	movs	r1, #0
 8000984:	4668      	mov	r0, sp
 8000986:	f003 fad3 	bl	8003f30 <memset>
 800098a:	2234      	movs	r2, #52	; 0x34
 800098c:	2100      	movs	r1, #0
 800098e:	a807      	add	r0, sp, #28
 8000990:	f003 face 	bl	8003f30 <memset>
 8000994:	4d22      	ldr	r5, [pc, #136]	; (8000a20 <MX_TIM16_Init+0xa4>)
 8000996:	4b23      	ldr	r3, [pc, #140]	; (8000a24 <MX_TIM16_Init+0xa8>)
 8000998:	4a23      	ldr	r2, [pc, #140]	; (8000a28 <MX_TIM16_Init+0xac>)
 800099a:	602b      	str	r3, [r5, #0]
 800099c:	232c      	movs	r3, #44	; 0x2c
 800099e:	33ff      	adds	r3, #255	; 0xff
 80009a0:	606b      	str	r3, [r5, #4]
 80009a2:	2300      	movs	r3, #0
 80009a4:	0028      	movs	r0, r5
 80009a6:	60ab      	str	r3, [r5, #8]
 80009a8:	612b      	str	r3, [r5, #16]
 80009aa:	616b      	str	r3, [r5, #20]
 80009ac:	3380      	adds	r3, #128	; 0x80
 80009ae:	60ea      	str	r2, [r5, #12]
 80009b0:	61ab      	str	r3, [r5, #24]
 80009b2:	f001 fee1 	bl	8002778 <HAL_TIM_Base_Init>
 80009b6:	2800      	cmp	r0, #0
 80009b8:	d001      	beq.n	80009be <MX_TIM16_Init+0x42>
 80009ba:	f7ff fedd 	bl	8000778 <Error_Handler>
 80009be:	0028      	movs	r0, r5
 80009c0:	f001 ff04 	bl	80027cc <HAL_TIM_PWM_Init>
 80009c4:	2800      	cmp	r0, #0
 80009c6:	d001      	beq.n	80009cc <MX_TIM16_Init+0x50>
 80009c8:	f7ff fed6 	bl	8000778 <Error_Handler>
 80009cc:	2400      	movs	r4, #0
 80009ce:	2360      	movs	r3, #96	; 0x60
 80009d0:	0022      	movs	r2, r4
 80009d2:	4669      	mov	r1, sp
 80009d4:	0028      	movs	r0, r5
 80009d6:	9300      	str	r3, [sp, #0]
 80009d8:	9401      	str	r4, [sp, #4]
 80009da:	9402      	str	r4, [sp, #8]
 80009dc:	9403      	str	r4, [sp, #12]
 80009de:	9404      	str	r4, [sp, #16]
 80009e0:	9405      	str	r4, [sp, #20]
 80009e2:	9406      	str	r4, [sp, #24]
 80009e4:	f001 ff58 	bl	8002898 <HAL_TIM_PWM_ConfigChannel>
 80009e8:	42a0      	cmp	r0, r4
 80009ea:	d001      	beq.n	80009f0 <MX_TIM16_Init+0x74>
 80009ec:	f7ff fec4 	bl	8000778 <Error_Handler>
 80009f0:	2380      	movs	r3, #128	; 0x80
 80009f2:	0028      	movs	r0, r5
 80009f4:	019b      	lsls	r3, r3, #6
 80009f6:	a907      	add	r1, sp, #28
 80009f8:	9407      	str	r4, [sp, #28]
 80009fa:	9408      	str	r4, [sp, #32]
 80009fc:	9409      	str	r4, [sp, #36]	; 0x24
 80009fe:	940a      	str	r4, [sp, #40]	; 0x28
 8000a00:	940b      	str	r4, [sp, #44]	; 0x2c
 8000a02:	930c      	str	r3, [sp, #48]	; 0x30
 8000a04:	940d      	str	r4, [sp, #52]	; 0x34
 8000a06:	9413      	str	r4, [sp, #76]	; 0x4c
 8000a08:	f002 f86c 	bl	8002ae4 <HAL_TIMEx_ConfigBreakDeadTime>
 8000a0c:	2800      	cmp	r0, #0
 8000a0e:	d001      	beq.n	8000a14 <MX_TIM16_Init+0x98>
 8000a10:	f7ff feb2 	bl	8000778 <Error_Handler>
 8000a14:	0028      	movs	r0, r5
 8000a16:	f7ff ff8b 	bl	8000930 <HAL_TIM_MspPostInit>
 8000a1a:	b015      	add	sp, #84	; 0x54
 8000a1c:	bd30      	pop	{r4, r5, pc}
 8000a1e:	46c0      	nop			; (mov r8, r8)
 8000a20:	2000015c 	.word	0x2000015c
 8000a24:	40014400 	.word	0x40014400
 8000a28:	000003e7 	.word	0x000003e7

08000a2c <MX_USART1_UART_Init>:
 8000a2c:	b510      	push	{r4, lr}
 8000a2e:	4b18      	ldr	r3, [pc, #96]	; (8000a90 <MX_USART1_UART_Init+0x64>)
 8000a30:	4c18      	ldr	r4, [pc, #96]	; (8000a94 <MX_USART1_UART_Init+0x68>)
 8000a32:	220c      	movs	r2, #12
 8000a34:	6023      	str	r3, [r4, #0]
 8000a36:	23e1      	movs	r3, #225	; 0xe1
 8000a38:	025b      	lsls	r3, r3, #9
 8000a3a:	6063      	str	r3, [r4, #4]
 8000a3c:	2300      	movs	r3, #0
 8000a3e:	0020      	movs	r0, r4
 8000a40:	60a3      	str	r3, [r4, #8]
 8000a42:	60e3      	str	r3, [r4, #12]
 8000a44:	6123      	str	r3, [r4, #16]
 8000a46:	6162      	str	r2, [r4, #20]
 8000a48:	61a3      	str	r3, [r4, #24]
 8000a4a:	61e3      	str	r3, [r4, #28]
 8000a4c:	6223      	str	r3, [r4, #32]
 8000a4e:	6263      	str	r3, [r4, #36]	; 0x24
 8000a50:	62a3      	str	r3, [r4, #40]	; 0x28
 8000a52:	f002 fa9f 	bl	8002f94 <HAL_HalfDuplex_Init>
 8000a56:	2800      	cmp	r0, #0
 8000a58:	d001      	beq.n	8000a5e <MX_USART1_UART_Init+0x32>
 8000a5a:	f7ff fe8d 	bl	8000778 <Error_Handler>
 8000a5e:	2100      	movs	r1, #0
 8000a60:	0020      	movs	r0, r4
 8000a62:	f002 fb15 	bl	8003090 <HAL_UARTEx_SetTxFifoThreshold>
 8000a66:	2800      	cmp	r0, #0
 8000a68:	d001      	beq.n	8000a6e <MX_USART1_UART_Init+0x42>
 8000a6a:	f7ff fe85 	bl	8000778 <Error_Handler>
 8000a6e:	2100      	movs	r1, #0
 8000a70:	0020      	movs	r0, r4
 8000a72:	f002 fb2d 	bl	80030d0 <HAL_UARTEx_SetRxFifoThreshold>
 8000a76:	2800      	cmp	r0, #0
 8000a78:	d001      	beq.n	8000a7e <MX_USART1_UART_Init+0x52>
 8000a7a:	f7ff fe7d 	bl	8000778 <Error_Handler>
 8000a7e:	0020      	movs	r0, r4
 8000a80:	f002 fae8 	bl	8003054 <HAL_UARTEx_DisableFifoMode>
 8000a84:	2800      	cmp	r0, #0
 8000a86:	d001      	beq.n	8000a8c <MX_USART1_UART_Init+0x60>
 8000a88:	f7ff fe76 	bl	8000778 <Error_Handler>
 8000a8c:	bd10      	pop	{r4, pc}
 8000a8e:	46c0      	nop			; (mov r8, r8)
 8000a90:	40013800 	.word	0x40013800
 8000a94:	200001a8 	.word	0x200001a8

08000a98 <HAL_UART_MspInit>:
 8000a98:	b510      	push	{r4, lr}
 8000a9a:	0004      	movs	r4, r0
 8000a9c:	b08e      	sub	sp, #56	; 0x38
 8000a9e:	2214      	movs	r2, #20
 8000aa0:	2100      	movs	r1, #0
 8000aa2:	a803      	add	r0, sp, #12
 8000aa4:	f003 fa44 	bl	8003f30 <memset>
 8000aa8:	2218      	movs	r2, #24
 8000aaa:	2100      	movs	r1, #0
 8000aac:	a808      	add	r0, sp, #32
 8000aae:	f003 fa3f 	bl	8003f30 <memset>
 8000ab2:	4b17      	ldr	r3, [pc, #92]	; (8000b10 <HAL_UART_MspInit+0x78>)
 8000ab4:	6822      	ldr	r2, [r4, #0]
 8000ab6:	429a      	cmp	r2, r3
 8000ab8:	d127      	bne.n	8000b0a <HAL_UART_MspInit+0x72>
 8000aba:	2301      	movs	r3, #1
 8000abc:	a808      	add	r0, sp, #32
 8000abe:	9308      	str	r3, [sp, #32]
 8000ac0:	f001 f81e 	bl	8001b00 <HAL_RCCEx_PeriphCLKConfig>
 8000ac4:	2800      	cmp	r0, #0
 8000ac6:	d001      	beq.n	8000acc <HAL_UART_MspInit+0x34>
 8000ac8:	f7ff fe56 	bl	8000778 <Error_Handler>
 8000acc:	2180      	movs	r1, #128	; 0x80
 8000ace:	4b11      	ldr	r3, [pc, #68]	; (8000b14 <HAL_UART_MspInit+0x7c>)
 8000ad0:	01c9      	lsls	r1, r1, #7
 8000ad2:	6c1a      	ldr	r2, [r3, #64]	; 0x40
 8000ad4:	4810      	ldr	r0, [pc, #64]	; (8000b18 <HAL_UART_MspInit+0x80>)
 8000ad6:	430a      	orrs	r2, r1
 8000ad8:	641a      	str	r2, [r3, #64]	; 0x40
 8000ada:	6c1a      	ldr	r2, [r3, #64]	; 0x40
 8000adc:	400a      	ands	r2, r1
 8000ade:	2102      	movs	r1, #2
 8000ae0:	9201      	str	r2, [sp, #4]
 8000ae2:	9a01      	ldr	r2, [sp, #4]
 8000ae4:	6b5a      	ldr	r2, [r3, #52]	; 0x34
 8000ae6:	430a      	orrs	r2, r1
 8000ae8:	635a      	str	r2, [r3, #52]	; 0x34
 8000aea:	6b5b      	ldr	r3, [r3, #52]	; 0x34
 8000aec:	400b      	ands	r3, r1
 8000aee:	9302      	str	r3, [sp, #8]
 8000af0:	9b02      	ldr	r3, [sp, #8]
 8000af2:	2340      	movs	r3, #64	; 0x40
 8000af4:	9303      	str	r3, [sp, #12]
 8000af6:	3b2e      	subs	r3, #46	; 0x2e
 8000af8:	9304      	str	r3, [sp, #16]
 8000afa:	3b11      	subs	r3, #17
 8000afc:	9305      	str	r3, [sp, #20]
 8000afe:	2300      	movs	r3, #0
 8000b00:	a903      	add	r1, sp, #12
 8000b02:	9306      	str	r3, [sp, #24]
 8000b04:	9307      	str	r3, [sp, #28]
 8000b06:	f000 fbf7 	bl	80012f8 <HAL_GPIO_Init>
 8000b0a:	b00e      	add	sp, #56	; 0x38
 8000b0c:	bd10      	pop	{r4, pc}
 8000b0e:	46c0      	nop			; (mov r8, r8)
 8000b10:	40013800 	.word	0x40013800
 8000b14:	40021000 	.word	0x40021000
 8000b18:	50000400 	.word	0x50000400

08000b1c <Reset_Handler>:
 8000b1c:	480d      	ldr	r0, [pc, #52]	; (8000b54 <LoopForever+0x2>)
 8000b1e:	4685      	mov	sp, r0
 8000b20:	f7ff feee 	bl	8000900 <SystemInit>
 8000b24:	480c      	ldr	r0, [pc, #48]	; (8000b58 <LoopForever+0x6>)
 8000b26:	490d      	ldr	r1, [pc, #52]	; (8000b5c <LoopForever+0xa>)
 8000b28:	4a0d      	ldr	r2, [pc, #52]	; (8000b60 <LoopForever+0xe>)
 8000b2a:	2300      	movs	r3, #0
 8000b2c:	e002      	b.n	8000b34 <LoopCopyDataInit>

08000b2e <CopyDataInit>:
 8000b2e:	58d4      	ldr	r4, [r2, r3]
 8000b30:	50c4      	str	r4, [r0, r3]
 8000b32:	3304      	adds	r3, #4

08000b34 <LoopCopyDataInit>:
 8000b34:	18c4      	adds	r4, r0, r3
 8000b36:	428c      	cmp	r4, r1
 8000b38:	d3f9      	bcc.n	8000b2e <CopyDataInit>
 8000b3a:	4a0a      	ldr	r2, [pc, #40]	; (8000b64 <LoopForever+0x12>)
 8000b3c:	4c0a      	ldr	r4, [pc, #40]	; (8000b68 <LoopForever+0x16>)
 8000b3e:	2300      	movs	r3, #0
 8000b40:	e001      	b.n	8000b46 <LoopFillZerobss>

08000b42 <FillZerobss>:
 8000b42:	6013      	str	r3, [r2, #0]
 8000b44:	3204      	adds	r2, #4

08000b46 <LoopFillZerobss>:
 8000b46:	42a2      	cmp	r2, r4
 8000b48:	d3fb      	bcc.n	8000b42 <FillZerobss>
 8000b4a:	f003 f9f9 	bl	8003f40 <__libc_init_array>
 8000b4e:	f7ff fd65 	bl	800061c <main>

08000b52 <LoopForever>:
 8000b52:	e7fe      	b.n	8000b52 <LoopForever>
 8000b54:	20002000 	.word	0x20002000
 8000b58:	20000000 	.word	0x20000000
 8000b5c:	20000014 	.word	0x20000014
 8000b60:	08004c40 	.word	0x08004c40
 8000b64:	20000014 	.word	0x20000014
 8000b68:	20000268 	.word	0x20000268

08000b6c <ADC1_IRQHandler>:
 8000b6c:	e7fe      	b.n	8000b6c <ADC1_IRQHandler>
	...

08000b70 <HAL_InitTick>:
 8000b70:	b570      	push	{r4, r5, r6, lr}
 8000b72:	4b10      	ldr	r3, [pc, #64]	; (8000bb4 <HAL_InitTick+0x44>)
 8000b74:	0005      	movs	r5, r0
 8000b76:	7819      	ldrb	r1, [r3, #0]
 8000b78:	2900      	cmp	r1, #0
 8000b7a:	d101      	bne.n	8000b80 <HAL_InitTick+0x10>
 8000b7c:	2001      	movs	r0, #1
 8000b7e:	bd70      	pop	{r4, r5, r6, pc}
 8000b80:	20fa      	movs	r0, #250	; 0xfa
 8000b82:	0080      	lsls	r0, r0, #2
 8000b84:	f7ff fac6 	bl	8000114 <__udivsi3>
 8000b88:	4c0b      	ldr	r4, [pc, #44]	; (8000bb8 <HAL_InitTick+0x48>)
 8000b8a:	0001      	movs	r1, r0
 8000b8c:	6820      	ldr	r0, [r4, #0]
 8000b8e:	f7ff fac1 	bl	8000114 <__udivsi3>
 8000b92:	f000 fb97 	bl	80012c4 <HAL_SYSTICK_Config>
 8000b96:	1e04      	subs	r4, r0, #0
 8000b98:	d1f0      	bne.n	8000b7c <HAL_InitTick+0xc>
 8000b9a:	2d03      	cmp	r5, #3
 8000b9c:	d8ee      	bhi.n	8000b7c <HAL_InitTick+0xc>
 8000b9e:	0002      	movs	r2, r0
 8000ba0:	2001      	movs	r0, #1
 8000ba2:	0029      	movs	r1, r5
 8000ba4:	4240      	negs	r0, r0
 8000ba6:	f000 fb63 	bl	8001270 <HAL_NVIC_SetPriority>
 8000baa:	4b04      	ldr	r3, [pc, #16]	; (8000bbc <HAL_InitTick+0x4c>)
 8000bac:	0020      	movs	r0, r4
 8000bae:	601d      	str	r5, [r3, #0]
 8000bb0:	e7e5      	b.n	8000b7e <HAL_InitTick+0xe>
 8000bb2:	46c0      	nop			; (mov r8, r8)
 8000bb4:	20000004 	.word	0x20000004
 8000bb8:	20000000 	.word	0x20000000
 8000bbc:	20000008 	.word	0x20000008

08000bc0 <HAL_Init>:
 8000bc0:	2380      	movs	r3, #128	; 0x80
 8000bc2:	4a08      	ldr	r2, [pc, #32]	; (8000be4 <HAL_Init+0x24>)
 8000bc4:	005b      	lsls	r3, r3, #1
 8000bc6:	6811      	ldr	r1, [r2, #0]
 8000bc8:	b510      	push	{r4, lr}
 8000bca:	430b      	orrs	r3, r1
 8000bcc:	2003      	movs	r0, #3
 8000bce:	6013      	str	r3, [r2, #0]
 8000bd0:	f7ff ffce 	bl	8000b70 <HAL_InitTick>
 8000bd4:	1e04      	subs	r4, r0, #0
 8000bd6:	d103      	bne.n	8000be0 <HAL_Init+0x20>
 8000bd8:	f7ff fe72 	bl	80008c0 <HAL_MspInit>
 8000bdc:	0020      	movs	r0, r4
 8000bde:	bd10      	pop	{r4, pc}
 8000be0:	2401      	movs	r4, #1
 8000be2:	e7fb      	b.n	8000bdc <HAL_Init+0x1c>
 8000be4:	40022000 	.word	0x40022000

08000be8 <HAL_IncTick>:
 8000be8:	4a03      	ldr	r2, [pc, #12]	; (8000bf8 <HAL_IncTick+0x10>)
 8000bea:	4b04      	ldr	r3, [pc, #16]	; (8000bfc <HAL_IncTick+0x14>)
 8000bec:	6811      	ldr	r1, [r2, #0]
 8000bee:	781b      	ldrb	r3, [r3, #0]
 8000bf0:	185b      	adds	r3, r3, r1
 8000bf2:	6013      	str	r3, [r2, #0]
 8000bf4:	4770      	bx	lr
 8000bf6:	46c0      	nop			; (mov r8, r8)
 8000bf8:	2000023c 	.word	0x2000023c
 8000bfc:	20000004 	.word	0x20000004

08000c00 <HAL_GetTick>:
 8000c00:	4b01      	ldr	r3, [pc, #4]	; (8000c08 <HAL_GetTick+0x8>)
 8000c02:	6818      	ldr	r0, [r3, #0]
 8000c04:	4770      	bx	lr
 8000c06:	46c0      	nop			; (mov r8, r8)
 8000c08:	2000023c 	.word	0x2000023c

08000c0c <HAL_Delay>:
 8000c0c:	b570      	push	{r4, r5, r6, lr}
 8000c0e:	0004      	movs	r4, r0
 8000c10:	f7ff fff6 	bl	8000c00 <HAL_GetTick>
 8000c14:	0005      	movs	r5, r0
 8000c16:	1c63      	adds	r3, r4, #1
 8000c18:	d002      	beq.n	8000c20 <HAL_Delay+0x14>
 8000c1a:	4b04      	ldr	r3, [pc, #16]	; (8000c2c <HAL_Delay+0x20>)
 8000c1c:	781b      	ldrb	r3, [r3, #0]
 8000c1e:	18e4      	adds	r4, r4, r3
 8000c20:	f7ff ffee 	bl	8000c00 <HAL_GetTick>
 8000c24:	1b40      	subs	r0, r0, r5
 8000c26:	42a0      	cmp	r0, r4
 8000c28:	d3fa      	bcc.n	8000c20 <HAL_Delay+0x14>
 8000c2a:	bd70      	pop	{r4, r5, r6, pc}
 8000c2c:	20000004 	.word	0x20000004

08000c30 <LL_ADC_REG_IsConversionOngoing>:
 8000c30:	6880      	ldr	r0, [r0, #8]
 8000c32:	0740      	lsls	r0, r0, #29
 8000c34:	0fc0      	lsrs	r0, r0, #31
 8000c36:	4770      	bx	lr

08000c38 <HAL_ADC_Init>:
 8000c38:	2300      	movs	r3, #0
 8000c3a:	b5f0      	push	{r4, r5, r6, r7, lr}
 8000c3c:	b085      	sub	sp, #20
 8000c3e:	0004      	movs	r4, r0
 8000c40:	2601      	movs	r6, #1
 8000c42:	9303      	str	r3, [sp, #12]
 8000c44:	4298      	cmp	r0, r3
 8000c46:	d100      	bne.n	8000c4a <HAL_ADC_Init+0x12>
 8000c48:	e0b4      	b.n	8000db4 <HAL_ADC_Init+0x17c>
 8000c4a:	6d85      	ldr	r5, [r0, #88]	; 0x58
 8000c4c:	429d      	cmp	r5, r3
 8000c4e:	d105      	bne.n	8000c5c <HAL_ADC_Init+0x24>
 8000c50:	f7ff fc16 	bl	8000480 <HAL_ADC_MspInit>
 8000c54:	0023      	movs	r3, r4
 8000c56:	3354      	adds	r3, #84	; 0x54
 8000c58:	65e5      	str	r5, [r4, #92]	; 0x5c
 8000c5a:	701d      	strb	r5, [r3, #0]
 8000c5c:	2380      	movs	r3, #128	; 0x80
 8000c5e:	6825      	ldr	r5, [r4, #0]
 8000c60:	055b      	lsls	r3, r3, #21
 8000c62:	68aa      	ldr	r2, [r5, #8]
 8000c64:	421a      	tst	r2, r3
 8000c66:	d100      	bne.n	8000c6a <HAL_ADC_Init+0x32>
 8000c68:	e0a7      	b.n	8000dba <HAL_ADC_Init+0x182>
 8000c6a:	68ab      	ldr	r3, [r5, #8]
 8000c6c:	2600      	movs	r6, #0
 8000c6e:	00db      	lsls	r3, r3, #3
 8000c70:	d407      	bmi.n	8000c82 <HAL_ADC_Init+0x4a>
 8000c72:	2310      	movs	r3, #16
 8000c74:	2601      	movs	r6, #1
 8000c76:	6da2      	ldr	r2, [r4, #88]	; 0x58
 8000c78:	4313      	orrs	r3, r2
 8000c7a:	65a3      	str	r3, [r4, #88]	; 0x58
 8000c7c:	6de3      	ldr	r3, [r4, #92]	; 0x5c
 8000c7e:	4333      	orrs	r3, r6
 8000c80:	65e3      	str	r3, [r4, #92]	; 0x5c
 8000c82:	0028      	movs	r0, r5
 8000c84:	f7ff ffd4 	bl	8000c30 <LL_ADC_REG_IsConversionOngoing>
 8000c88:	2210      	movs	r2, #16
 8000c8a:	6da3      	ldr	r3, [r4, #88]	; 0x58
 8000c8c:	4013      	ands	r3, r2
 8000c8e:	4303      	orrs	r3, r0
 8000c90:	d000      	beq.n	8000c94 <HAL_ADC_Init+0x5c>
 8000c92:	e0cd      	b.n	8000e30 <HAL_ADC_Init+0x1f8>
 8000c94:	6da2      	ldr	r2, [r4, #88]	; 0x58
 8000c96:	4b69      	ldr	r3, [pc, #420]	; (8000e3c <HAL_ADC_Init+0x204>)
 8000c98:	401a      	ands	r2, r3
 8000c9a:	3306      	adds	r3, #6
 8000c9c:	33ff      	adds	r3, #255	; 0xff
 8000c9e:	4313      	orrs	r3, r2
 8000ca0:	65a3      	str	r3, [r4, #88]	; 0x58
 8000ca2:	6922      	ldr	r2, [r4, #16]
 8000ca4:	68ab      	ldr	r3, [r5, #8]
 8000ca6:	9201      	str	r2, [sp, #4]
 8000ca8:	07db      	lsls	r3, r3, #31
 8000caa:	d462      	bmi.n	8000d72 <HAL_ADC_Init+0x13a>
 8000cac:	6b27      	ldr	r7, [r4, #48]	; 0x30
 8000cae:	68e1      	ldr	r1, [r4, #12]
 8000cb0:	1e7b      	subs	r3, r7, #1
 8000cb2:	419f      	sbcs	r7, r3
 8000cb4:	68a3      	ldr	r3, [r4, #8]
 8000cb6:	7ea2      	ldrb	r2, [r4, #26]
 8000cb8:	430b      	orrs	r3, r1
 8000cba:	7e21      	ldrb	r1, [r4, #24]
 8000cbc:	033f      	lsls	r7, r7, #12
 8000cbe:	0389      	lsls	r1, r1, #14
 8000cc0:	430b      	orrs	r3, r1
 8000cc2:	7e61      	ldrb	r1, [r4, #25]
 8000cc4:	03c9      	lsls	r1, r1, #15
 8000cc6:	430b      	orrs	r3, r1
 8000cc8:	0351      	lsls	r1, r2, #13
 8000cca:	430b      	orrs	r3, r1
 8000ccc:	469c      	mov	ip, r3
 8000cce:	9b01      	ldr	r3, [sp, #4]
 8000cd0:	2b00      	cmp	r3, #0
 8000cd2:	db00      	blt.n	8000cd6 <HAL_ADC_Init+0x9e>
 8000cd4:	e086      	b.n	8000de4 <HAL_ADC_Init+0x1ac>
 8000cd6:	0059      	lsls	r1, r3, #1
 8000cd8:	0849      	lsrs	r1, r1, #1
 8000cda:	0023      	movs	r3, r4
 8000cdc:	4660      	mov	r0, ip
 8000cde:	332c      	adds	r3, #44	; 0x2c
 8000ce0:	781b      	ldrb	r3, [r3, #0]
 8000ce2:	005b      	lsls	r3, r3, #1
 8000ce4:	4303      	orrs	r3, r0
 8000ce6:	433b      	orrs	r3, r7
 8000ce8:	430b      	orrs	r3, r1
 8000cea:	1c61      	adds	r1, r4, #1
 8000cec:	7fc9      	ldrb	r1, [r1, #31]
 8000cee:	2901      	cmp	r1, #1
 8000cf0:	d105      	bne.n	8000cfe <HAL_ADC_Init+0xc6>
 8000cf2:	2a00      	cmp	r2, #0
 8000cf4:	d000      	beq.n	8000cf8 <HAL_ADC_Init+0xc0>
 8000cf6:	e078      	b.n	8000dea <HAL_ADC_Init+0x1b2>
 8000cf8:	2280      	movs	r2, #128	; 0x80
 8000cfa:	0252      	lsls	r2, r2, #9
 8000cfc:	4313      	orrs	r3, r2
 8000cfe:	6a62      	ldr	r2, [r4, #36]	; 0x24
 8000d00:	2a00      	cmp	r2, #0
 8000d02:	d005      	beq.n	8000d10 <HAL_ADC_Init+0xd8>
 8000d04:	21e0      	movs	r1, #224	; 0xe0
 8000d06:	0049      	lsls	r1, r1, #1
 8000d08:	400a      	ands	r2, r1
 8000d0a:	6aa1      	ldr	r1, [r4, #40]	; 0x28
 8000d0c:	430a      	orrs	r2, r1
 8000d0e:	4313      	orrs	r3, r2
 8000d10:	68ea      	ldr	r2, [r5, #12]
 8000d12:	494b      	ldr	r1, [pc, #300]	; (8000e40 <HAL_ADC_Init+0x208>)
 8000d14:	400a      	ands	r2, r1
 8000d16:	4313      	orrs	r3, r2
 8000d18:	60eb      	str	r3, [r5, #12]
 8000d1a:	0023      	movs	r3, r4
 8000d1c:	6862      	ldr	r2, [r4, #4]
 8000d1e:	333c      	adds	r3, #60	; 0x3c
 8000d20:	6ce1      	ldr	r1, [r4, #76]	; 0x4c
 8000d22:	781b      	ldrb	r3, [r3, #0]
 8000d24:	0f97      	lsrs	r7, r2, #30
 8000d26:	07bf      	lsls	r7, r7, #30
 8000d28:	469c      	mov	ip, r3
 8000d2a:	4339      	orrs	r1, r7
 8000d2c:	2b01      	cmp	r3, #1
 8000d2e:	d108      	bne.n	8000d42 <HAL_ADC_Init+0x10a>
 8000d30:	6c23      	ldr	r3, [r4, #64]	; 0x40
 8000d32:	6c60      	ldr	r0, [r4, #68]	; 0x44
 8000d34:	4303      	orrs	r3, r0
 8000d36:	430b      	orrs	r3, r1
 8000d38:	6ca1      	ldr	r1, [r4, #72]	; 0x48
 8000d3a:	430b      	orrs	r3, r1
 8000d3c:	4661      	mov	r1, ip
 8000d3e:	433b      	orrs	r3, r7
 8000d40:	4319      	orrs	r1, r3
 8000d42:	692b      	ldr	r3, [r5, #16]
 8000d44:	4f3f      	ldr	r7, [pc, #252]	; (8000e44 <HAL_ADC_Init+0x20c>)
 8000d46:	403b      	ands	r3, r7
 8000d48:	430b      	orrs	r3, r1
 8000d4a:	2180      	movs	r1, #128	; 0x80
 8000d4c:	612b      	str	r3, [r5, #16]
 8000d4e:	0053      	lsls	r3, r2, #1
 8000d50:	085b      	lsrs	r3, r3, #1
 8000d52:	05c9      	lsls	r1, r1, #23
 8000d54:	428b      	cmp	r3, r1
 8000d56:	d00c      	beq.n	8000d72 <HAL_ADC_Init+0x13a>
 8000d58:	2380      	movs	r3, #128	; 0x80
 8000d5a:	061b      	lsls	r3, r3, #24
 8000d5c:	429a      	cmp	r2, r3
 8000d5e:	d008      	beq.n	8000d72 <HAL_ADC_Init+0x13a>
 8000d60:	4939      	ldr	r1, [pc, #228]	; (8000e48 <HAL_ADC_Init+0x210>)
 8000d62:	4f3a      	ldr	r7, [pc, #232]	; (8000e4c <HAL_ADC_Init+0x214>)
 8000d64:	680b      	ldr	r3, [r1, #0]
 8000d66:	403b      	ands	r3, r7
 8000d68:	27f0      	movs	r7, #240	; 0xf0
 8000d6a:	03bf      	lsls	r7, r7, #14
 8000d6c:	403a      	ands	r2, r7
 8000d6e:	4313      	orrs	r3, r2
 8000d70:	600b      	str	r3, [r1, #0]
 8000d72:	2107      	movs	r1, #7
 8000d74:	2770      	movs	r7, #112	; 0x70
 8000d76:	696b      	ldr	r3, [r5, #20]
 8000d78:	6b62      	ldr	r2, [r4, #52]	; 0x34
 8000d7a:	438b      	bics	r3, r1
 8000d7c:	4313      	orrs	r3, r2
 8000d7e:	616b      	str	r3, [r5, #20]
 8000d80:	6969      	ldr	r1, [r5, #20]
 8000d82:	6ba3      	ldr	r3, [r4, #56]	; 0x38
 8000d84:	43b9      	bics	r1, r7
 8000d86:	011b      	lsls	r3, r3, #4
 8000d88:	430b      	orrs	r3, r1
 8000d8a:	616b      	str	r3, [r5, #20]
 8000d8c:	9b01      	ldr	r3, [sp, #4]
 8000d8e:	2b00      	cmp	r3, #0
 8000d90:	d133      	bne.n	8000dfa <HAL_ADC_Init+0x1c2>
 8000d92:	6aa9      	ldr	r1, [r5, #40]	; 0x28
 8000d94:	3b10      	subs	r3, #16
 8000d96:	430b      	orrs	r3, r1
 8000d98:	62ab      	str	r3, [r5, #40]	; 0x28
 8000d9a:	2107      	movs	r1, #7
 8000d9c:	696b      	ldr	r3, [r5, #20]
 8000d9e:	400b      	ands	r3, r1
 8000da0:	429a      	cmp	r2, r3
 8000da2:	d13a      	bne.n	8000e1a <HAL_ADC_Init+0x1e2>
 8000da4:	2300      	movs	r3, #0
 8000da6:	65e3      	str	r3, [r4, #92]	; 0x5c
 8000da8:	6da2      	ldr	r2, [r4, #88]	; 0x58
 8000daa:	3303      	adds	r3, #3
 8000dac:	439a      	bics	r2, r3
 8000dae:	3b02      	subs	r3, #2
 8000db0:	4313      	orrs	r3, r2
 8000db2:	65a3      	str	r3, [r4, #88]	; 0x58
 8000db4:	0030      	movs	r0, r6
 8000db6:	b005      	add	sp, #20
 8000db8:	bdf0      	pop	{r4, r5, r6, r7, pc}
 8000dba:	68aa      	ldr	r2, [r5, #8]
 8000dbc:	4924      	ldr	r1, [pc, #144]	; (8000e50 <HAL_ADC_Init+0x218>)
 8000dbe:	400a      	ands	r2, r1
 8000dc0:	4313      	orrs	r3, r2
 8000dc2:	60ab      	str	r3, [r5, #8]
 8000dc4:	4b23      	ldr	r3, [pc, #140]	; (8000e54 <HAL_ADC_Init+0x21c>)
 8000dc6:	4924      	ldr	r1, [pc, #144]	; (8000e58 <HAL_ADC_Init+0x220>)
 8000dc8:	6818      	ldr	r0, [r3, #0]
 8000dca:	f7ff f9a3 	bl	8000114 <__udivsi3>
 8000dce:	3001      	adds	r0, #1
 8000dd0:	0040      	lsls	r0, r0, #1
 8000dd2:	9003      	str	r0, [sp, #12]
 8000dd4:	9b03      	ldr	r3, [sp, #12]
 8000dd6:	2b00      	cmp	r3, #0
 8000dd8:	d100      	bne.n	8000ddc <HAL_ADC_Init+0x1a4>
 8000dda:	e746      	b.n	8000c6a <HAL_ADC_Init+0x32>
 8000ddc:	9b03      	ldr	r3, [sp, #12]
 8000dde:	3b01      	subs	r3, #1
 8000de0:	9303      	str	r3, [sp, #12]
 8000de2:	e7f7      	b.n	8000dd4 <HAL_ADC_Init+0x19c>
 8000de4:	2180      	movs	r1, #128	; 0x80
 8000de6:	0389      	lsls	r1, r1, #14
 8000de8:	e777      	b.n	8000cda <HAL_ADC_Init+0xa2>
 8000dea:	2220      	movs	r2, #32
 8000dec:	6da7      	ldr	r7, [r4, #88]	; 0x58
 8000dee:	433a      	orrs	r2, r7
 8000df0:	65a2      	str	r2, [r4, #88]	; 0x58
 8000df2:	6de2      	ldr	r2, [r4, #92]	; 0x5c
 8000df4:	4311      	orrs	r1, r2
 8000df6:	65e1      	str	r1, [r4, #92]	; 0x5c
 8000df8:	e781      	b.n	8000cfe <HAL_ADC_Init+0xc6>
 8000dfa:	2380      	movs	r3, #128	; 0x80
 8000dfc:	9901      	ldr	r1, [sp, #4]
 8000dfe:	039b      	lsls	r3, r3, #14
 8000e00:	4299      	cmp	r1, r3
 8000e02:	d1ca      	bne.n	8000d9a <HAL_ADC_Init+0x162>
 8000e04:	211c      	movs	r1, #28
 8000e06:	6aab      	ldr	r3, [r5, #40]	; 0x28
 8000e08:	69e3      	ldr	r3, [r4, #28]
 8000e0a:	3b01      	subs	r3, #1
 8000e0c:	009b      	lsls	r3, r3, #2
 8000e0e:	400b      	ands	r3, r1
 8000e10:	392c      	subs	r1, #44	; 0x2c
 8000e12:	4099      	lsls	r1, r3
 8000e14:	000b      	movs	r3, r1
 8000e16:	6e21      	ldr	r1, [r4, #96]	; 0x60
 8000e18:	e7bd      	b.n	8000d96 <HAL_ADC_Init+0x15e>
 8000e1a:	2312      	movs	r3, #18
 8000e1c:	2601      	movs	r6, #1
 8000e1e:	6da2      	ldr	r2, [r4, #88]	; 0x58
 8000e20:	439a      	bics	r2, r3
 8000e22:	3b02      	subs	r3, #2
 8000e24:	4313      	orrs	r3, r2
 8000e26:	65a3      	str	r3, [r4, #88]	; 0x58
 8000e28:	6de3      	ldr	r3, [r4, #92]	; 0x5c
 8000e2a:	4333      	orrs	r3, r6
 8000e2c:	65e3      	str	r3, [r4, #92]	; 0x5c
 8000e2e:	e7c1      	b.n	8000db4 <HAL_ADC_Init+0x17c>
 8000e30:	6da3      	ldr	r3, [r4, #88]	; 0x58
 8000e32:	2601      	movs	r6, #1
 8000e34:	431a      	orrs	r2, r3
 8000e36:	65a2      	str	r2, [r4, #88]	; 0x58
 8000e38:	e7bc      	b.n	8000db4 <HAL_ADC_Init+0x17c>
 8000e3a:	46c0      	nop			; (mov r8, r8)
 8000e3c:	fffffefd 	.word	0xfffffefd
 8000e40:	ffde0201 	.word	0xffde0201
 8000e44:	1ffffc02 	.word	0x1ffffc02
 8000e48:	40012708 	.word	0x40012708
 8000e4c:	ffc3ffff 	.word	0xffc3ffff
 8000e50:	6fffffe8 	.word	0x6fffffe8
 8000e54:	20000000 	.word	0x20000000
 8000e58:	00030d40 	.word	0x00030d40

08000e5c <HAL_ADC_PollForConversion>:
 8000e5c:	b5f7      	push	{r0, r1, r2, r4, r5, r6, r7, lr}
 8000e5e:	6946      	ldr	r6, [r0, #20]
 8000e60:	0004      	movs	r4, r0
 8000e62:	000f      	movs	r7, r1
 8000e64:	2e08      	cmp	r6, #8
 8000e66:	d00a      	beq.n	8000e7e <HAL_ADC_PollForConversion+0x22>
 8000e68:	6803      	ldr	r3, [r0, #0]
 8000e6a:	2001      	movs	r0, #1
 8000e6c:	68db      	ldr	r3, [r3, #12]
 8000e6e:	2604      	movs	r6, #4
 8000e70:	4203      	tst	r3, r0
 8000e72:	d004      	beq.n	8000e7e <HAL_ADC_PollForConversion+0x22>
 8000e74:	2320      	movs	r3, #32
 8000e76:	6da2      	ldr	r2, [r4, #88]	; 0x58
 8000e78:	4313      	orrs	r3, r2
 8000e7a:	65a3      	str	r3, [r4, #88]	; 0x58
 8000e7c:	bdfe      	pop	{r1, r2, r3, r4, r5, r6, r7, pc}
 8000e7e:	f7ff febf 	bl	8000c00 <HAL_GetTick>
 8000e82:	9001      	str	r0, [sp, #4]
 8000e84:	6825      	ldr	r5, [r4, #0]
 8000e86:	682b      	ldr	r3, [r5, #0]
 8000e88:	421e      	tst	r6, r3
 8000e8a:	d025      	beq.n	8000ed8 <HAL_ADC_PollForConversion+0x7c>
 8000e8c:	2380      	movs	r3, #128	; 0x80
 8000e8e:	6da2      	ldr	r2, [r4, #88]	; 0x58
 8000e90:	009b      	lsls	r3, r3, #2
 8000e92:	4313      	orrs	r3, r2
 8000e94:	65a3      	str	r3, [r4, #88]	; 0x58
 8000e96:	23c0      	movs	r3, #192	; 0xc0
 8000e98:	68ea      	ldr	r2, [r5, #12]
 8000e9a:	011b      	lsls	r3, r3, #4
 8000e9c:	421a      	tst	r2, r3
 8000e9e:	d115      	bne.n	8000ecc <HAL_ADC_PollForConversion+0x70>
 8000ea0:	7ea3      	ldrb	r3, [r4, #26]
 8000ea2:	2b00      	cmp	r3, #0
 8000ea4:	d112      	bne.n	8000ecc <HAL_ADC_PollForConversion+0x70>
 8000ea6:	682b      	ldr	r3, [r5, #0]
 8000ea8:	071b      	lsls	r3, r3, #28
 8000eaa:	d50f      	bpl.n	8000ecc <HAL_ADC_PollForConversion+0x70>
 8000eac:	0028      	movs	r0, r5
 8000eae:	f7ff febf 	bl	8000c30 <LL_ADC_REG_IsConversionOngoing>
 8000eb2:	2800      	cmp	r0, #0
 8000eb4:	d128      	bne.n	8000f08 <HAL_ADC_PollForConversion+0xac>
 8000eb6:	220c      	movs	r2, #12
 8000eb8:	686b      	ldr	r3, [r5, #4]
 8000eba:	4393      	bics	r3, r2
 8000ebc:	606b      	str	r3, [r5, #4]
 8000ebe:	6da2      	ldr	r2, [r4, #88]	; 0x58
 8000ec0:	4b17      	ldr	r3, [pc, #92]	; (8000f20 <HAL_ADC_PollForConversion+0xc4>)
 8000ec2:	401a      	ands	r2, r3
 8000ec4:	3304      	adds	r3, #4
 8000ec6:	33ff      	adds	r3, #255	; 0xff
 8000ec8:	4313      	orrs	r3, r2
 8000eca:	65a3      	str	r3, [r4, #88]	; 0x58
 8000ecc:	7e20      	ldrb	r0, [r4, #24]
 8000ece:	2800      	cmp	r0, #0
 8000ed0:	d123      	bne.n	8000f1a <HAL_ADC_PollForConversion+0xbe>
 8000ed2:	230c      	movs	r3, #12
 8000ed4:	602b      	str	r3, [r5, #0]
 8000ed6:	e7d1      	b.n	8000e7c <HAL_ADC_PollForConversion+0x20>
 8000ed8:	1c7b      	adds	r3, r7, #1
 8000eda:	d0d4      	beq.n	8000e86 <HAL_ADC_PollForConversion+0x2a>
 8000edc:	f7ff fe90 	bl	8000c00 <HAL_GetTick>
 8000ee0:	9b01      	ldr	r3, [sp, #4]
 8000ee2:	1ac0      	subs	r0, r0, r3
 8000ee4:	42b8      	cmp	r0, r7
 8000ee6:	d801      	bhi.n	8000eec <HAL_ADC_PollForConversion+0x90>
 8000ee8:	2f00      	cmp	r7, #0
 8000eea:	d1cb      	bne.n	8000e84 <HAL_ADC_PollForConversion+0x28>
 8000eec:	0032      	movs	r2, r6
 8000eee:	6823      	ldr	r3, [r4, #0]
 8000ef0:	681b      	ldr	r3, [r3, #0]
 8000ef2:	401a      	ands	r2, r3
 8000ef4:	421e      	tst	r6, r3
 8000ef6:	d1c5      	bne.n	8000e84 <HAL_ADC_PollForConversion+0x28>
 8000ef8:	2304      	movs	r3, #4
 8000efa:	6da1      	ldr	r1, [r4, #88]	; 0x58
 8000efc:	3454      	adds	r4, #84	; 0x54
 8000efe:	430b      	orrs	r3, r1
 8000f00:	6063      	str	r3, [r4, #4]
 8000f02:	2003      	movs	r0, #3
 8000f04:	7022      	strb	r2, [r4, #0]
 8000f06:	e7b9      	b.n	8000e7c <HAL_ADC_PollForConversion+0x20>
 8000f08:	2320      	movs	r3, #32
 8000f0a:	6da2      	ldr	r2, [r4, #88]	; 0x58
 8000f0c:	4313      	orrs	r3, r2
 8000f0e:	65a3      	str	r3, [r4, #88]	; 0x58
 8000f10:	2301      	movs	r3, #1
 8000f12:	6de2      	ldr	r2, [r4, #92]	; 0x5c
 8000f14:	4313      	orrs	r3, r2
 8000f16:	65e3      	str	r3, [r4, #92]	; 0x5c
 8000f18:	e7d8      	b.n	8000ecc <HAL_ADC_PollForConversion+0x70>
 8000f1a:	2000      	movs	r0, #0
 8000f1c:	e7ae      	b.n	8000e7c <HAL_ADC_PollForConversion+0x20>
 8000f1e:	46c0      	nop			; (mov r8, r8)
 8000f20:	fffffefe 	.word	0xfffffefe

08000f24 <HAL_ADC_GetValue>:
 8000f24:	6803      	ldr	r3, [r0, #0]
 8000f26:	6c18      	ldr	r0, [r3, #64]	; 0x40
 8000f28:	4770      	bx	lr
	...

08000f2c <HAL_ADC_ConfigChannel>:
 8000f2c:	2300      	movs	r3, #0
 8000f2e:	b5f0      	push	{r4, r5, r6, r7, lr}
 8000f30:	b085      	sub	sp, #20
 8000f32:	9303      	str	r3, [sp, #12]
 8000f34:	0003      	movs	r3, r0
 8000f36:	9100      	str	r1, [sp, #0]
 8000f38:	3354      	adds	r3, #84	; 0x54
 8000f3a:	781a      	ldrb	r2, [r3, #0]
 8000f3c:	0005      	movs	r5, r0
 8000f3e:	2002      	movs	r0, #2
 8000f40:	2a01      	cmp	r2, #1
 8000f42:	d100      	bne.n	8000f46 <HAL_ADC_ConfigChannel+0x1a>
 8000f44:	e0bf      	b.n	80010c6 <HAL_ADC_ConfigChannel+0x19a>
 8000f46:	2201      	movs	r2, #1
 8000f48:	692f      	ldr	r7, [r5, #16]
 8000f4a:	701a      	strb	r2, [r3, #0]
 8000f4c:	682e      	ldr	r6, [r5, #0]
 8000f4e:	0030      	movs	r0, r6
 8000f50:	f7ff fe6e 	bl	8000c30 <LL_ADC_REG_IsConversionOngoing>
 8000f54:	2800      	cmp	r0, #0
 8000f56:	d000      	beq.n	8000f5a <HAL_ADC_ConfigChannel+0x2e>
 8000f58:	e0ea      	b.n	8001130 <HAL_ADC_ConfigChannel+0x204>
 8000f5a:	9b00      	ldr	r3, [sp, #0]
 8000f5c:	2204      	movs	r2, #4
 8000f5e:	685b      	ldr	r3, [r3, #4]
 8000f60:	2180      	movs	r1, #128	; 0x80
 8000f62:	469c      	mov	ip, r3
 8000f64:	4397      	bics	r7, r2
 8000f66:	4662      	mov	r2, ip
 8000f68:	9b00      	ldr	r3, [sp, #0]
 8000f6a:	0609      	lsls	r1, r1, #24
 8000f6c:	681b      	ldr	r3, [r3, #0]
 8000f6e:	2a02      	cmp	r2, #2
 8000f70:	d100      	bne.n	8000f74 <HAL_ADC_ConfigChannel+0x48>
 8000f72:	e0b1      	b.n	80010d8 <HAL_ADC_ConfigChannel+0x1ac>
 8000f74:	035a      	lsls	r2, r3, #13
 8000f76:	0b52      	lsrs	r2, r2, #13
 8000f78:	428f      	cmp	r7, r1
 8000f7a:	d110      	bne.n	8000f9e <HAL_ADC_ConfigChannel+0x72>
 8000f7c:	6ab1      	ldr	r1, [r6, #40]	; 0x28
 8000f7e:	430a      	orrs	r2, r1
 8000f80:	62b2      	str	r2, [r6, #40]	; 0x28
 8000f82:	9a00      	ldr	r2, [sp, #0]
 8000f84:	6970      	ldr	r0, [r6, #20]
 8000f86:	6892      	ldr	r2, [r2, #8]
 8000f88:	0219      	lsls	r1, r3, #8
 8000f8a:	4c6c      	ldr	r4, [pc, #432]	; (800113c <HAL_ADC_ConfigChannel+0x210>)
 8000f8c:	400a      	ands	r2, r1
 8000f8e:	4022      	ands	r2, r4
 8000f90:	4388      	bics	r0, r1
 8000f92:	4302      	orrs	r2, r0
 8000f94:	6172      	str	r2, [r6, #20]
 8000f96:	2b00      	cmp	r3, #0
 8000f98:	db60      	blt.n	800105c <HAL_ADC_ConfigChannel+0x130>
 8000f9a:	2000      	movs	r0, #0
 8000f9c:	e090      	b.n	80010c0 <HAL_ADC_ConfigChannel+0x194>
 8000f9e:	211f      	movs	r1, #31
 8000fa0:	4667      	mov	r7, ip
 8000fa2:	400f      	ands	r7, r1
 8000fa4:	3910      	subs	r1, #16
 8000fa6:	40b9      	lsls	r1, r7
 8000fa8:	43cc      	mvns	r4, r1
 8000faa:	9401      	str	r4, [sp, #4]
 8000fac:	6e2c      	ldr	r4, [r5, #96]	; 0x60
 8000fae:	438c      	bics	r4, r1
 8000fb0:	0021      	movs	r1, r4
 8000fb2:	2a00      	cmp	r2, #0
 8000fb4:	d112      	bne.n	8000fdc <HAL_ADC_ConfigChannel+0xb0>
 8000fb6:	0e98      	lsrs	r0, r3, #26
 8000fb8:	321f      	adds	r2, #31
 8000fba:	4010      	ands	r0, r2
 8000fbc:	40b8      	lsls	r0, r7
 8000fbe:	4662      	mov	r2, ip
 8000fc0:	4308      	orrs	r0, r1
 8000fc2:	0892      	lsrs	r2, r2, #2
 8000fc4:	69e9      	ldr	r1, [r5, #28]
 8000fc6:	3201      	adds	r2, #1
 8000fc8:	6628      	str	r0, [r5, #96]	; 0x60
 8000fca:	428a      	cmp	r2, r1
 8000fcc:	d8d9      	bhi.n	8000f82 <HAL_ADC_ConfigChannel+0x56>
 8000fce:	6ab1      	ldr	r1, [r6, #40]	; 0x28
 8000fd0:	9801      	ldr	r0, [sp, #4]
 8000fd2:	009a      	lsls	r2, r3, #2
 8000fd4:	0f12      	lsrs	r2, r2, #28
 8000fd6:	40ba      	lsls	r2, r7
 8000fd8:	4001      	ands	r1, r0
 8000fda:	e7d0      	b.n	8000f7e <HAL_ADC_ConfigChannel+0x52>
 8000fdc:	2201      	movs	r2, #1
 8000fde:	4213      	tst	r3, r2
 8000fe0:	d1ec      	bne.n	8000fbc <HAL_ADC_ConfigChannel+0x90>
 8000fe2:	1892      	adds	r2, r2, r2
 8000fe4:	2001      	movs	r0, #1
 8000fe6:	4213      	tst	r3, r2
 8000fe8:	d1e8      	bne.n	8000fbc <HAL_ADC_ConfigChannel+0x90>
 8000fea:	0010      	movs	r0, r2
 8000fec:	3202      	adds	r2, #2
 8000fee:	4213      	tst	r3, r2
 8000ff0:	d1e4      	bne.n	8000fbc <HAL_ADC_ConfigChannel+0x90>
 8000ff2:	3001      	adds	r0, #1
 8000ff4:	071a      	lsls	r2, r3, #28
 8000ff6:	d4e1      	bmi.n	8000fbc <HAL_ADC_ConfigChannel+0x90>
 8000ff8:	3001      	adds	r0, #1
 8000ffa:	06da      	lsls	r2, r3, #27
 8000ffc:	d4de      	bmi.n	8000fbc <HAL_ADC_ConfigChannel+0x90>
 8000ffe:	3001      	adds	r0, #1
 8001000:	069a      	lsls	r2, r3, #26
 8001002:	d4db      	bmi.n	8000fbc <HAL_ADC_ConfigChannel+0x90>
 8001004:	3001      	adds	r0, #1
 8001006:	065a      	lsls	r2, r3, #25
 8001008:	d4d8      	bmi.n	8000fbc <HAL_ADC_ConfigChannel+0x90>
 800100a:	3001      	adds	r0, #1
 800100c:	061a      	lsls	r2, r3, #24
 800100e:	d4d5      	bmi.n	8000fbc <HAL_ADC_ConfigChannel+0x90>
 8001010:	3001      	adds	r0, #1
 8001012:	05da      	lsls	r2, r3, #23
 8001014:	d4d2      	bmi.n	8000fbc <HAL_ADC_ConfigChannel+0x90>
 8001016:	3001      	adds	r0, #1
 8001018:	059a      	lsls	r2, r3, #22
 800101a:	d4cf      	bmi.n	8000fbc <HAL_ADC_ConfigChannel+0x90>
 800101c:	3001      	adds	r0, #1
 800101e:	055a      	lsls	r2, r3, #21
 8001020:	d4cc      	bmi.n	8000fbc <HAL_ADC_ConfigChannel+0x90>
 8001022:	3001      	adds	r0, #1
 8001024:	051a      	lsls	r2, r3, #20
 8001026:	d4c9      	bmi.n	8000fbc <HAL_ADC_ConfigChannel+0x90>
 8001028:	3001      	adds	r0, #1
 800102a:	04da      	lsls	r2, r3, #19
 800102c:	d4c6      	bmi.n	8000fbc <HAL_ADC_ConfigChannel+0x90>
 800102e:	3001      	adds	r0, #1
 8001030:	049a      	lsls	r2, r3, #18
 8001032:	d4c3      	bmi.n	8000fbc <HAL_ADC_ConfigChannel+0x90>
 8001034:	3001      	adds	r0, #1
 8001036:	045a      	lsls	r2, r3, #17
 8001038:	d4c0      	bmi.n	8000fbc <HAL_ADC_ConfigChannel+0x90>
 800103a:	3001      	adds	r0, #1
 800103c:	041a      	lsls	r2, r3, #16
 800103e:	d4bd      	bmi.n	8000fbc <HAL_ADC_ConfigChannel+0x90>
 8001040:	3001      	adds	r0, #1
 8001042:	03da      	lsls	r2, r3, #15
 8001044:	d4ba      	bmi.n	8000fbc <HAL_ADC_ConfigChannel+0x90>
 8001046:	3001      	adds	r0, #1
 8001048:	039a      	lsls	r2, r3, #14
 800104a:	d4b7      	bmi.n	8000fbc <HAL_ADC_ConfigChannel+0x90>
 800104c:	2280      	movs	r2, #128	; 0x80
 800104e:	0018      	movs	r0, r3
 8001050:	02d2      	lsls	r2, r2, #11
 8001052:	4010      	ands	r0, r2
 8001054:	4213      	tst	r3, r2
 8001056:	d0b1      	beq.n	8000fbc <HAL_ADC_ConfigChannel+0x90>
 8001058:	2012      	movs	r0, #18
 800105a:	e7af      	b.n	8000fbc <HAL_ADC_ConfigChannel+0x90>
 800105c:	24e0      	movs	r4, #224	; 0xe0
 800105e:	4a38      	ldr	r2, [pc, #224]	; (8001140 <HAL_ADC_ConfigChannel+0x214>)
 8001060:	4838      	ldr	r0, [pc, #224]	; (8001144 <HAL_ADC_ConfigChannel+0x218>)
 8001062:	6811      	ldr	r1, [r2, #0]
 8001064:	0464      	lsls	r4, r4, #17
 8001066:	400c      	ands	r4, r1
 8001068:	4283      	cmp	r3, r0
 800106a:	d119      	bne.n	80010a0 <HAL_ADC_ConfigChannel+0x174>
 800106c:	2080      	movs	r0, #128	; 0x80
 800106e:	0400      	lsls	r0, r0, #16
 8001070:	4201      	tst	r1, r0
 8001072:	d192      	bne.n	8000f9a <HAL_ADC_ConfigChannel+0x6e>
 8001074:	6813      	ldr	r3, [r2, #0]
 8001076:	4934      	ldr	r1, [pc, #208]	; (8001148 <HAL_ADC_ConfigChannel+0x21c>)
 8001078:	400b      	ands	r3, r1
 800107a:	4323      	orrs	r3, r4
 800107c:	4318      	orrs	r0, r3
 800107e:	4b33      	ldr	r3, [pc, #204]	; (800114c <HAL_ADC_ConfigChannel+0x220>)
 8001080:	6010      	str	r0, [r2, #0]
 8001082:	6818      	ldr	r0, [r3, #0]
 8001084:	4932      	ldr	r1, [pc, #200]	; (8001150 <HAL_ADC_ConfigChannel+0x224>)
 8001086:	f7ff f845 	bl	8000114 <__udivsi3>
 800108a:	1c43      	adds	r3, r0, #1
 800108c:	200c      	movs	r0, #12
 800108e:	4358      	muls	r0, r3
 8001090:	9003      	str	r0, [sp, #12]
 8001092:	9b03      	ldr	r3, [sp, #12]
 8001094:	2b00      	cmp	r3, #0
 8001096:	d080      	beq.n	8000f9a <HAL_ADC_ConfigChannel+0x6e>
 8001098:	9b03      	ldr	r3, [sp, #12]
 800109a:	3b01      	subs	r3, #1
 800109c:	9303      	str	r3, [sp, #12]
 800109e:	e7f8      	b.n	8001092 <HAL_ADC_ConfigChannel+0x166>
 80010a0:	482c      	ldr	r0, [pc, #176]	; (8001154 <HAL_ADC_ConfigChannel+0x228>)
 80010a2:	4283      	cmp	r3, r0
 80010a4:	d111      	bne.n	80010ca <HAL_ADC_ConfigChannel+0x19e>
 80010a6:	2380      	movs	r3, #128	; 0x80
 80010a8:	045b      	lsls	r3, r3, #17
 80010aa:	0008      	movs	r0, r1
 80010ac:	4018      	ands	r0, r3
 80010ae:	4219      	tst	r1, r3
 80010b0:	d000      	beq.n	80010b4 <HAL_ADC_ConfigChannel+0x188>
 80010b2:	e772      	b.n	8000f9a <HAL_ADC_ConfigChannel+0x6e>
 80010b4:	6811      	ldr	r1, [r2, #0]
 80010b6:	4e24      	ldr	r6, [pc, #144]	; (8001148 <HAL_ADC_ConfigChannel+0x21c>)
 80010b8:	4031      	ands	r1, r6
 80010ba:	4321      	orrs	r1, r4
 80010bc:	430b      	orrs	r3, r1
 80010be:	6013      	str	r3, [r2, #0]
 80010c0:	2300      	movs	r3, #0
 80010c2:	3554      	adds	r5, #84	; 0x54
 80010c4:	702b      	strb	r3, [r5, #0]
 80010c6:	b005      	add	sp, #20
 80010c8:	bdf0      	pop	{r4, r5, r6, r7, pc}
 80010ca:	4823      	ldr	r0, [pc, #140]	; (8001158 <HAL_ADC_ConfigChannel+0x22c>)
 80010cc:	4283      	cmp	r3, r0
 80010ce:	d000      	beq.n	80010d2 <HAL_ADC_ConfigChannel+0x1a6>
 80010d0:	e763      	b.n	8000f9a <HAL_ADC_ConfigChannel+0x6e>
 80010d2:	2380      	movs	r3, #128	; 0x80
 80010d4:	03db      	lsls	r3, r3, #15
 80010d6:	e7e8      	b.n	80010aa <HAL_ADC_ConfigChannel+0x17e>
 80010d8:	428f      	cmp	r7, r1
 80010da:	d104      	bne.n	80010e6 <HAL_ADC_ConfigChannel+0x1ba>
 80010dc:	6ab2      	ldr	r2, [r6, #40]	; 0x28
 80010de:	0359      	lsls	r1, r3, #13
 80010e0:	0b49      	lsrs	r1, r1, #13
 80010e2:	438a      	bics	r2, r1
 80010e4:	62b2      	str	r2, [r6, #40]	; 0x28
 80010e6:	2b00      	cmp	r3, #0
 80010e8:	db00      	blt.n	80010ec <HAL_ADC_ConfigChannel+0x1c0>
 80010ea:	e756      	b.n	8000f9a <HAL_ADC_ConfigChannel+0x6e>
 80010ec:	4a14      	ldr	r2, [pc, #80]	; (8001140 <HAL_ADC_ConfigChannel+0x214>)
 80010ee:	4815      	ldr	r0, [pc, #84]	; (8001144 <HAL_ADC_ConfigChannel+0x218>)
 80010f0:	6811      	ldr	r1, [r2, #0]
 80010f2:	4283      	cmp	r3, r0
 80010f4:	d108      	bne.n	8001108 <HAL_ADC_ConfigChannel+0x1dc>
 80010f6:	23a0      	movs	r3, #160	; 0xa0
 80010f8:	6810      	ldr	r0, [r2, #0]
 80010fa:	045b      	lsls	r3, r3, #17
 80010fc:	400b      	ands	r3, r1
 80010fe:	4912      	ldr	r1, [pc, #72]	; (8001148 <HAL_ADC_ConfigChannel+0x21c>)
 8001100:	4001      	ands	r1, r0
 8001102:	430b      	orrs	r3, r1
 8001104:	6013      	str	r3, [r2, #0]
 8001106:	e748      	b.n	8000f9a <HAL_ADC_ConfigChannel+0x6e>
 8001108:	4812      	ldr	r0, [pc, #72]	; (8001154 <HAL_ADC_ConfigChannel+0x228>)
 800110a:	4283      	cmp	r3, r0
 800110c:	d103      	bne.n	8001116 <HAL_ADC_ConfigChannel+0x1ea>
 800110e:	23c0      	movs	r3, #192	; 0xc0
 8001110:	6810      	ldr	r0, [r2, #0]
 8001112:	041b      	lsls	r3, r3, #16
 8001114:	e7f2      	b.n	80010fc <HAL_ADC_ConfigChannel+0x1d0>
 8001116:	4810      	ldr	r0, [pc, #64]	; (8001158 <HAL_ADC_ConfigChannel+0x22c>)
 8001118:	4283      	cmp	r3, r0
 800111a:	d000      	beq.n	800111e <HAL_ADC_ConfigChannel+0x1f2>
 800111c:	e73d      	b.n	8000f9a <HAL_ADC_ConfigChannel+0x6e>
 800111e:	20c0      	movs	r0, #192	; 0xc0
 8001120:	0440      	lsls	r0, r0, #17
 8001122:	6813      	ldr	r3, [r2, #0]
 8001124:	4001      	ands	r1, r0
 8001126:	4808      	ldr	r0, [pc, #32]	; (8001148 <HAL_ADC_ConfigChannel+0x21c>)
 8001128:	4003      	ands	r3, r0
 800112a:	4319      	orrs	r1, r3
 800112c:	6011      	str	r1, [r2, #0]
 800112e:	e734      	b.n	8000f9a <HAL_ADC_ConfigChannel+0x6e>
 8001130:	2320      	movs	r3, #32
 8001132:	6daa      	ldr	r2, [r5, #88]	; 0x58
 8001134:	2001      	movs	r0, #1
 8001136:	4313      	orrs	r3, r2
 8001138:	65ab      	str	r3, [r5, #88]	; 0x58
 800113a:	e7c1      	b.n	80010c0 <HAL_ADC_ConfigChannel+0x194>
 800113c:	07ffff00 	.word	0x07ffff00
 8001140:	40012708 	.word	0x40012708
 8001144:	b0001000 	.word	0xb0001000
 8001148:	fe3fffff 	.word	0xfe3fffff
 800114c:	20000000 	.word	0x20000000
 8001150:	00030d40 	.word	0x00030d40
 8001154:	b8004000 	.word	0xb8004000
 8001158:	b4002000 	.word	0xb4002000

0800115c <ADC_Enable>:
 800115c:	2300      	movs	r3, #0
 800115e:	b5f7      	push	{r0, r1, r2, r4, r5, r6, r7, lr}
 8001160:	0004      	movs	r4, r0
 8001162:	9301      	str	r3, [sp, #4]
 8001164:	6803      	ldr	r3, [r0, #0]
 8001166:	2001      	movs	r0, #1
 8001168:	689a      	ldr	r2, [r3, #8]
 800116a:	4202      	tst	r2, r0
 800116c:	d001      	beq.n	8001172 <ADC_Enable+0x16>
 800116e:	2000      	movs	r0, #0
 8001170:	bdfe      	pop	{r1, r2, r3, r4, r5, r6, r7, pc}
 8001172:	6899      	ldr	r1, [r3, #8]
 8001174:	4a22      	ldr	r2, [pc, #136]	; (8001200 <ADC_Enable+0xa4>)
 8001176:	4211      	tst	r1, r2
 8001178:	d007      	beq.n	800118a <ADC_Enable+0x2e>
 800117a:	2310      	movs	r3, #16
 800117c:	6da2      	ldr	r2, [r4, #88]	; 0x58
 800117e:	4313      	orrs	r3, r2
 8001180:	65a3      	str	r3, [r4, #88]	; 0x58
 8001182:	6de3      	ldr	r3, [r4, #92]	; 0x5c
 8001184:	4303      	orrs	r3, r0
 8001186:	65e3      	str	r3, [r4, #92]	; 0x5c
 8001188:	e7f2      	b.n	8001170 <ADC_Enable+0x14>
 800118a:	689a      	ldr	r2, [r3, #8]
 800118c:	4d1d      	ldr	r5, [pc, #116]	; (8001204 <ADC_Enable+0xa8>)
 800118e:	402a      	ands	r2, r5
 8001190:	4310      	orrs	r0, r2
 8001192:	6098      	str	r0, [r3, #8]
 8001194:	4b1c      	ldr	r3, [pc, #112]	; (8001208 <ADC_Enable+0xac>)
 8001196:	681b      	ldr	r3, [r3, #0]
 8001198:	021b      	lsls	r3, r3, #8
 800119a:	d423      	bmi.n	80011e4 <ADC_Enable+0x88>
 800119c:	7e63      	ldrb	r3, [r4, #25]
 800119e:	2b01      	cmp	r3, #1
 80011a0:	d0e5      	beq.n	800116e <ADC_Enable+0x12>
 80011a2:	f7ff fd2d 	bl	8000c00 <HAL_GetTick>
 80011a6:	2601      	movs	r6, #1
 80011a8:	0007      	movs	r7, r0
 80011aa:	6822      	ldr	r2, [r4, #0]
 80011ac:	6813      	ldr	r3, [r2, #0]
 80011ae:	4233      	tst	r3, r6
 80011b0:	d1dd      	bne.n	800116e <ADC_Enable+0x12>
 80011b2:	6893      	ldr	r3, [r2, #8]
 80011b4:	4233      	tst	r3, r6
 80011b6:	d103      	bne.n	80011c0 <ADC_Enable+0x64>
 80011b8:	6893      	ldr	r3, [r2, #8]
 80011ba:	402b      	ands	r3, r5
 80011bc:	4333      	orrs	r3, r6
 80011be:	6093      	str	r3, [r2, #8]
 80011c0:	f7ff fd1e 	bl	8000c00 <HAL_GetTick>
 80011c4:	1bc0      	subs	r0, r0, r7
 80011c6:	2802      	cmp	r0, #2
 80011c8:	d9ef      	bls.n	80011aa <ADC_Enable+0x4e>
 80011ca:	6823      	ldr	r3, [r4, #0]
 80011cc:	681b      	ldr	r3, [r3, #0]
 80011ce:	4233      	tst	r3, r6
 80011d0:	d1eb      	bne.n	80011aa <ADC_Enable+0x4e>
 80011d2:	2310      	movs	r3, #16
 80011d4:	6da2      	ldr	r2, [r4, #88]	; 0x58
 80011d6:	2001      	movs	r0, #1
 80011d8:	4313      	orrs	r3, r2
 80011da:	65a3      	str	r3, [r4, #88]	; 0x58
 80011dc:	6de3      	ldr	r3, [r4, #92]	; 0x5c
 80011de:	4333      	orrs	r3, r6
 80011e0:	65e3      	str	r3, [r4, #92]	; 0x5c
 80011e2:	e7c5      	b.n	8001170 <ADC_Enable+0x14>
 80011e4:	4b09      	ldr	r3, [pc, #36]	; (800120c <ADC_Enable+0xb0>)
 80011e6:	490a      	ldr	r1, [pc, #40]	; (8001210 <ADC_Enable+0xb4>)
 80011e8:	6818      	ldr	r0, [r3, #0]
 80011ea:	f7fe ff93 	bl	8000114 <__udivsi3>
 80011ee:	3001      	adds	r0, #1
 80011f0:	9001      	str	r0, [sp, #4]
 80011f2:	9b01      	ldr	r3, [sp, #4]
 80011f4:	2b00      	cmp	r3, #0
 80011f6:	d0d1      	beq.n	800119c <ADC_Enable+0x40>
 80011f8:	9b01      	ldr	r3, [sp, #4]
 80011fa:	3b01      	subs	r3, #1
 80011fc:	9301      	str	r3, [sp, #4]
 80011fe:	e7f8      	b.n	80011f2 <ADC_Enable+0x96>
 8001200:	80000017 	.word	0x80000017
 8001204:	7fffffe8 	.word	0x7fffffe8
 8001208:	40012708 	.word	0x40012708
 800120c:	20000000 	.word	0x20000000
 8001210:	00030d40 	.word	0x00030d40

08001214 <HAL_ADC_Start>:
 8001214:	b570      	push	{r4, r5, r6, lr}
 8001216:	0004      	movs	r4, r0
 8001218:	6800      	ldr	r0, [r0, #0]
 800121a:	f7ff fd09 	bl	8000c30 <LL_ADC_REG_IsConversionOngoing>
 800121e:	0006      	movs	r6, r0
 8001220:	2002      	movs	r0, #2
 8001222:	2e00      	cmp	r6, #0
 8001224:	d11d      	bne.n	8001262 <HAL_ADC_Start+0x4e>
 8001226:	0025      	movs	r5, r4
 8001228:	3554      	adds	r5, #84	; 0x54
 800122a:	782b      	ldrb	r3, [r5, #0]
 800122c:	2b01      	cmp	r3, #1
 800122e:	d018      	beq.n	8001262 <HAL_ADC_Start+0x4e>
 8001230:	2301      	movs	r3, #1
 8001232:	0020      	movs	r0, r4
 8001234:	702b      	strb	r3, [r5, #0]
 8001236:	f7ff ff91 	bl	800115c <ADC_Enable>
 800123a:	2800      	cmp	r0, #0
 800123c:	d112      	bne.n	8001264 <HAL_ADC_Start+0x50>
 800123e:	6da2      	ldr	r2, [r4, #88]	; 0x58
 8001240:	4b09      	ldr	r3, [pc, #36]	; (8001268 <HAL_ADC_Start+0x54>)
 8001242:	401a      	ands	r2, r3
 8001244:	2380      	movs	r3, #128	; 0x80
 8001246:	005b      	lsls	r3, r3, #1
 8001248:	4313      	orrs	r3, r2
 800124a:	221c      	movs	r2, #28
 800124c:	65a3      	str	r3, [r4, #88]	; 0x58
 800124e:	6823      	ldr	r3, [r4, #0]
 8001250:	65e0      	str	r0, [r4, #92]	; 0x5c
 8001252:	601a      	str	r2, [r3, #0]
 8001254:	7028      	strb	r0, [r5, #0]
 8001256:	6899      	ldr	r1, [r3, #8]
 8001258:	4a04      	ldr	r2, [pc, #16]	; (800126c <HAL_ADC_Start+0x58>)
 800125a:	4011      	ands	r1, r2
 800125c:	2204      	movs	r2, #4
 800125e:	430a      	orrs	r2, r1
 8001260:	609a      	str	r2, [r3, #8]
 8001262:	bd70      	pop	{r4, r5, r6, pc}
 8001264:	702e      	strb	r6, [r5, #0]
 8001266:	e7fc      	b.n	8001262 <HAL_ADC_Start+0x4e>
 8001268:	fffff0fe 	.word	0xfffff0fe
 800126c:	7fffffe8 	.word	0x7fffffe8

08001270 <HAL_NVIC_SetPriority>:
 8001270:	b530      	push	{r4, r5, lr}
 8001272:	25ff      	movs	r5, #255	; 0xff
 8001274:	2403      	movs	r4, #3
 8001276:	002a      	movs	r2, r5
 8001278:	4004      	ands	r4, r0
 800127a:	00e4      	lsls	r4, r4, #3
 800127c:	40a2      	lsls	r2, r4
 800127e:	0189      	lsls	r1, r1, #6
 8001280:	4029      	ands	r1, r5
 8001282:	43d2      	mvns	r2, r2
 8001284:	40a1      	lsls	r1, r4
 8001286:	b2c3      	uxtb	r3, r0
 8001288:	2800      	cmp	r0, #0
 800128a:	db0a      	blt.n	80012a2 <HAL_NVIC_SetPriority+0x32>
 800128c:	24c0      	movs	r4, #192	; 0xc0
 800128e:	4b0b      	ldr	r3, [pc, #44]	; (80012bc <HAL_NVIC_SetPriority+0x4c>)
 8001290:	0880      	lsrs	r0, r0, #2
 8001292:	0080      	lsls	r0, r0, #2
 8001294:	18c0      	adds	r0, r0, r3
 8001296:	00a4      	lsls	r4, r4, #2
 8001298:	5903      	ldr	r3, [r0, r4]
 800129a:	4013      	ands	r3, r2
 800129c:	430b      	orrs	r3, r1
 800129e:	5103      	str	r3, [r0, r4]
 80012a0:	bd30      	pop	{r4, r5, pc}
 80012a2:	200f      	movs	r0, #15
 80012a4:	4003      	ands	r3, r0
 80012a6:	3b08      	subs	r3, #8
 80012a8:	4805      	ldr	r0, [pc, #20]	; (80012c0 <HAL_NVIC_SetPriority+0x50>)
 80012aa:	089b      	lsrs	r3, r3, #2
 80012ac:	009b      	lsls	r3, r3, #2
 80012ae:	181b      	adds	r3, r3, r0
 80012b0:	69d8      	ldr	r0, [r3, #28]
 80012b2:	4002      	ands	r2, r0
 80012b4:	430a      	orrs	r2, r1
 80012b6:	61da      	str	r2, [r3, #28]
 80012b8:	e7f2      	b.n	80012a0 <HAL_NVIC_SetPriority+0x30>
 80012ba:	46c0      	nop			; (mov r8, r8)
 80012bc:	e000e100 	.word	0xe000e100
 80012c0:	e000ed00 	.word	0xe000ed00

080012c4 <HAL_SYSTICK_Config>:
 80012c4:	2280      	movs	r2, #128	; 0x80
 80012c6:	1e43      	subs	r3, r0, #1
 80012c8:	0452      	lsls	r2, r2, #17
 80012ca:	2001      	movs	r0, #1
 80012cc:	4293      	cmp	r3, r2
 80012ce:	d20d      	bcs.n	80012ec <HAL_SYSTICK_Config+0x28>
 80012d0:	21c0      	movs	r1, #192	; 0xc0
 80012d2:	4a07      	ldr	r2, [pc, #28]	; (80012f0 <HAL_SYSTICK_Config+0x2c>)
 80012d4:	4807      	ldr	r0, [pc, #28]	; (80012f4 <HAL_SYSTICK_Config+0x30>)
 80012d6:	6053      	str	r3, [r2, #4]
 80012d8:	6a03      	ldr	r3, [r0, #32]
 80012da:	0609      	lsls	r1, r1, #24
 80012dc:	021b      	lsls	r3, r3, #8
 80012de:	0a1b      	lsrs	r3, r3, #8
 80012e0:	430b      	orrs	r3, r1
 80012e2:	6203      	str	r3, [r0, #32]
 80012e4:	2000      	movs	r0, #0
 80012e6:	2307      	movs	r3, #7
 80012e8:	6090      	str	r0, [r2, #8]
 80012ea:	6013      	str	r3, [r2, #0]
 80012ec:	4770      	bx	lr
 80012ee:	46c0      	nop			; (mov r8, r8)
 80012f0:	e000e010 	.word	0xe000e010
 80012f4:	e000ed00 	.word	0xe000ed00

080012f8 <HAL_GPIO_Init>:
 80012f8:	2300      	movs	r3, #0
 80012fa:	b5f0      	push	{r4, r5, r6, r7, lr}
 80012fc:	b085      	sub	sp, #20
 80012fe:	680a      	ldr	r2, [r1, #0]
 8001300:	0014      	movs	r4, r2
 8001302:	40dc      	lsrs	r4, r3
 8001304:	d101      	bne.n	800130a <HAL_GPIO_Init+0x12>
 8001306:	b005      	add	sp, #20
 8001308:	bdf0      	pop	{r4, r5, r6, r7, pc}
 800130a:	2501      	movs	r5, #1
 800130c:	0014      	movs	r4, r2
 800130e:	409d      	lsls	r5, r3
 8001310:	402c      	ands	r4, r5
 8001312:	9400      	str	r4, [sp, #0]
 8001314:	422a      	tst	r2, r5
 8001316:	d100      	bne.n	800131a <HAL_GPIO_Init+0x22>
 8001318:	e091      	b.n	800143e <HAL_GPIO_Init+0x146>
 800131a:	684a      	ldr	r2, [r1, #4]
 800131c:	005f      	lsls	r7, r3, #1
 800131e:	4694      	mov	ip, r2
 8001320:	2203      	movs	r2, #3
 8001322:	4664      	mov	r4, ip
 8001324:	4022      	ands	r2, r4
 8001326:	2403      	movs	r4, #3
 8001328:	40bc      	lsls	r4, r7
 800132a:	43e4      	mvns	r4, r4
 800132c:	9401      	str	r4, [sp, #4]
 800132e:	1e54      	subs	r4, r2, #1
 8001330:	2c01      	cmp	r4, #1
 8001332:	d82e      	bhi.n	8001392 <HAL_GPIO_Init+0x9a>
 8001334:	6886      	ldr	r6, [r0, #8]
 8001336:	9c01      	ldr	r4, [sp, #4]
 8001338:	4026      	ands	r6, r4
 800133a:	68cc      	ldr	r4, [r1, #12]
 800133c:	40bc      	lsls	r4, r7
 800133e:	4334      	orrs	r4, r6
 8001340:	6084      	str	r4, [r0, #8]
 8001342:	6844      	ldr	r4, [r0, #4]
 8001344:	2601      	movs	r6, #1
 8001346:	43ac      	bics	r4, r5
 8001348:	0025      	movs	r5, r4
 800134a:	4664      	mov	r4, ip
 800134c:	0924      	lsrs	r4, r4, #4
 800134e:	4034      	ands	r4, r6
 8001350:	409c      	lsls	r4, r3
 8001352:	432c      	orrs	r4, r5
 8001354:	6044      	str	r4, [r0, #4]
 8001356:	68c5      	ldr	r5, [r0, #12]
 8001358:	9c01      	ldr	r4, [sp, #4]
 800135a:	4025      	ands	r5, r4
 800135c:	688c      	ldr	r4, [r1, #8]
 800135e:	40bc      	lsls	r4, r7
 8001360:	432c      	orrs	r4, r5
 8001362:	60c4      	str	r4, [r0, #12]
 8001364:	2a02      	cmp	r2, #2
 8001366:	d116      	bne.n	8001396 <HAL_GPIO_Init+0x9e>
 8001368:	2507      	movs	r5, #7
 800136a:	260f      	movs	r6, #15
 800136c:	401d      	ands	r5, r3
 800136e:	00ad      	lsls	r5, r5, #2
 8001370:	40ae      	lsls	r6, r5
 8001372:	08dc      	lsrs	r4, r3, #3
 8001374:	00a4      	lsls	r4, r4, #2
 8001376:	1904      	adds	r4, r0, r4
 8001378:	9402      	str	r4, [sp, #8]
 800137a:	6a24      	ldr	r4, [r4, #32]
 800137c:	9603      	str	r6, [sp, #12]
 800137e:	0026      	movs	r6, r4
 8001380:	9c03      	ldr	r4, [sp, #12]
 8001382:	43a6      	bics	r6, r4
 8001384:	0034      	movs	r4, r6
 8001386:	690e      	ldr	r6, [r1, #16]
 8001388:	40ae      	lsls	r6, r5
 800138a:	4326      	orrs	r6, r4
 800138c:	9c02      	ldr	r4, [sp, #8]
 800138e:	6226      	str	r6, [r4, #32]
 8001390:	e001      	b.n	8001396 <HAL_GPIO_Init+0x9e>
 8001392:	2a03      	cmp	r2, #3
 8001394:	d1df      	bne.n	8001356 <HAL_GPIO_Init+0x5e>
 8001396:	40ba      	lsls	r2, r7
 8001398:	6804      	ldr	r4, [r0, #0]
 800139a:	9d01      	ldr	r5, [sp, #4]
 800139c:	4025      	ands	r5, r4
 800139e:	432a      	orrs	r2, r5
 80013a0:	24c0      	movs	r4, #192	; 0xc0
 80013a2:	6002      	str	r2, [r0, #0]
 80013a4:	4662      	mov	r2, ip
 80013a6:	02a4      	lsls	r4, r4, #10
 80013a8:	4222      	tst	r2, r4
 80013aa:	d048      	beq.n	800143e <HAL_GPIO_Init+0x146>
 80013ac:	4a25      	ldr	r2, [pc, #148]	; (8001444 <HAL_GPIO_Init+0x14c>)
 80013ae:	2503      	movs	r5, #3
 80013b0:	089c      	lsrs	r4, r3, #2
 80013b2:	00a4      	lsls	r4, r4, #2
 80013b4:	18a4      	adds	r4, r4, r2
 80013b6:	220f      	movs	r2, #15
 80013b8:	401d      	ands	r5, r3
 80013ba:	00ed      	lsls	r5, r5, #3
 80013bc:	40aa      	lsls	r2, r5
 80013be:	27a0      	movs	r7, #160	; 0xa0
 80013c0:	6e26      	ldr	r6, [r4, #96]	; 0x60
 80013c2:	05ff      	lsls	r7, r7, #23
 80013c4:	4396      	bics	r6, r2
 80013c6:	2200      	movs	r2, #0
 80013c8:	42b8      	cmp	r0, r7
 80013ca:	d00c      	beq.n	80013e6 <HAL_GPIO_Init+0xee>
 80013cc:	4f1e      	ldr	r7, [pc, #120]	; (8001448 <HAL_GPIO_Init+0x150>)
 80013ce:	3201      	adds	r2, #1
 80013d0:	42b8      	cmp	r0, r7
 80013d2:	d008      	beq.n	80013e6 <HAL_GPIO_Init+0xee>
 80013d4:	4f1d      	ldr	r7, [pc, #116]	; (800144c <HAL_GPIO_Init+0x154>)
 80013d6:	3201      	adds	r2, #1
 80013d8:	42b8      	cmp	r0, r7
 80013da:	d004      	beq.n	80013e6 <HAL_GPIO_Init+0xee>
 80013dc:	4f1c      	ldr	r7, [pc, #112]	; (8001450 <HAL_GPIO_Init+0x158>)
 80013de:	3201      	adds	r2, #1
 80013e0:	42b8      	cmp	r0, r7
 80013e2:	d000      	beq.n	80013e6 <HAL_GPIO_Init+0xee>
 80013e4:	3202      	adds	r2, #2
 80013e6:	40aa      	lsls	r2, r5
 80013e8:	4667      	mov	r7, ip
 80013ea:	4332      	orrs	r2, r6
 80013ec:	6622      	str	r2, [r4, #96]	; 0x60
 80013ee:	4c15      	ldr	r4, [pc, #84]	; (8001444 <HAL_GPIO_Init+0x14c>)
 80013f0:	9a00      	ldr	r2, [sp, #0]
 80013f2:	6826      	ldr	r6, [r4, #0]
 80013f4:	9d00      	ldr	r5, [sp, #0]
 80013f6:	43d2      	mvns	r2, r2
 80013f8:	4335      	orrs	r5, r6
 80013fa:	02ff      	lsls	r7, r7, #11
 80013fc:	d401      	bmi.n	8001402 <HAL_GPIO_Init+0x10a>
 80013fe:	0035      	movs	r5, r6
 8001400:	4015      	ands	r5, r2
 8001402:	4667      	mov	r7, ip
 8001404:	6025      	str	r5, [r4, #0]
 8001406:	6866      	ldr	r6, [r4, #4]
 8001408:	9d00      	ldr	r5, [sp, #0]
 800140a:	4335      	orrs	r5, r6
 800140c:	02bf      	lsls	r7, r7, #10
 800140e:	d401      	bmi.n	8001414 <HAL_GPIO_Init+0x11c>
 8001410:	0035      	movs	r5, r6
 8001412:	4015      	ands	r5, r2
 8001414:	4667      	mov	r7, ip
 8001416:	6065      	str	r5, [r4, #4]
 8001418:	4c0e      	ldr	r4, [pc, #56]	; (8001454 <HAL_GPIO_Init+0x15c>)
 800141a:	9d00      	ldr	r5, [sp, #0]
 800141c:	6fe6      	ldr	r6, [r4, #124]	; 0x7c
 800141e:	4335      	orrs	r5, r6
 8001420:	03bf      	lsls	r7, r7, #14
 8001422:	d401      	bmi.n	8001428 <HAL_GPIO_Init+0x130>
 8001424:	0035      	movs	r5, r6
 8001426:	4015      	ands	r5, r2
 8001428:	4667      	mov	r7, ip
 800142a:	67e5      	str	r5, [r4, #124]	; 0x7c
 800142c:	4c0a      	ldr	r4, [pc, #40]	; (8001458 <HAL_GPIO_Init+0x160>)
 800142e:	9e00      	ldr	r6, [sp, #0]
 8001430:	6fe5      	ldr	r5, [r4, #124]	; 0x7c
 8001432:	432e      	orrs	r6, r5
 8001434:	03ff      	lsls	r7, r7, #15
 8001436:	d401      	bmi.n	800143c <HAL_GPIO_Init+0x144>
 8001438:	4015      	ands	r5, r2
 800143a:	002e      	movs	r6, r5
 800143c:	67e6      	str	r6, [r4, #124]	; 0x7c
 800143e:	3301      	adds	r3, #1
 8001440:	e75d      	b.n	80012fe <HAL_GPIO_Init+0x6>
 8001442:	46c0      	nop			; (mov r8, r8)
 8001444:	40021800 	.word	0x40021800
 8001448:	50000400 	.word	0x50000400
 800144c:	50000800 	.word	0x50000800
 8001450:	50000c00 	.word	0x50000c00
 8001454:	40021808 	.word	0x40021808
 8001458:	40021804 	.word	0x40021804

0800145c <HAL_GPIO_WritePin>:
 800145c:	2a00      	cmp	r2, #0
 800145e:	d001      	beq.n	8001464 <HAL_GPIO_WritePin+0x8>
 8001460:	6181      	str	r1, [r0, #24]
 8001462:	4770      	bx	lr
 8001464:	6281      	str	r1, [r0, #40]	; 0x28
 8001466:	e7fc      	b.n	8001462 <HAL_GPIO_WritePin+0x6>

08001468 <HAL_PWREx_ControlVoltageScaling>:
 8001468:	b510      	push	{r4, lr}
 800146a:	4c11      	ldr	r4, [pc, #68]	; (80014b0 <HAL_PWREx_ControlVoltageScaling+0x48>)
 800146c:	4911      	ldr	r1, [pc, #68]	; (80014b4 <HAL_PWREx_ControlVoltageScaling+0x4c>)
 800146e:	6823      	ldr	r3, [r4, #0]
 8001470:	0002      	movs	r2, r0
 8001472:	400b      	ands	r3, r1
 8001474:	4303      	orrs	r3, r0
 8001476:	6023      	str	r3, [r4, #0]
 8001478:	2380      	movs	r3, #128	; 0x80
 800147a:	2000      	movs	r0, #0
 800147c:	009b      	lsls	r3, r3, #2
 800147e:	429a      	cmp	r2, r3
 8001480:	d10e      	bne.n	80014a0 <HAL_PWREx_ControlVoltageScaling+0x38>
 8001482:	4b0d      	ldr	r3, [pc, #52]	; (80014b8 <HAL_PWREx_ControlVoltageScaling+0x50>)
 8001484:	490d      	ldr	r1, [pc, #52]	; (80014bc <HAL_PWREx_ControlVoltageScaling+0x54>)
 8001486:	6818      	ldr	r0, [r3, #0]
 8001488:	2306      	movs	r3, #6
 800148a:	4358      	muls	r0, r3
 800148c:	f7fe fe42 	bl	8000114 <__udivsi3>
 8001490:	2280      	movs	r2, #128	; 0x80
 8001492:	1c43      	adds	r3, r0, #1
 8001494:	00d2      	lsls	r2, r2, #3
 8001496:	6961      	ldr	r1, [r4, #20]
 8001498:	0008      	movs	r0, r1
 800149a:	4010      	ands	r0, r2
 800149c:	4211      	tst	r1, r2
 800149e:	d100      	bne.n	80014a2 <HAL_PWREx_ControlVoltageScaling+0x3a>
 80014a0:	bd10      	pop	{r4, pc}
 80014a2:	2b00      	cmp	r3, #0
 80014a4:	d001      	beq.n	80014aa <HAL_PWREx_ControlVoltageScaling+0x42>
 80014a6:	3b01      	subs	r3, #1
 80014a8:	e7f5      	b.n	8001496 <HAL_PWREx_ControlVoltageScaling+0x2e>
 80014aa:	2003      	movs	r0, #3
 80014ac:	e7f8      	b.n	80014a0 <HAL_PWREx_ControlVoltageScaling+0x38>
 80014ae:	46c0      	nop			; (mov r8, r8)
 80014b0:	40007000 	.word	0x40007000
 80014b4:	fffff9ff 	.word	0xfffff9ff
 80014b8:	20000000 	.word	0x20000000
 80014bc:	000f4240 	.word	0x000f4240

080014c0 <HAL_RCC_OscConfig>:
 80014c0:	b5f0      	push	{r4, r5, r6, r7, lr}
 80014c2:	0004      	movs	r4, r0
 80014c4:	b085      	sub	sp, #20
 80014c6:	2800      	cmp	r0, #0
 80014c8:	d023      	beq.n	8001512 <HAL_RCC_OscConfig+0x52>
 80014ca:	6803      	ldr	r3, [r0, #0]
 80014cc:	07db      	lsls	r3, r3, #31
 80014ce:	d410      	bmi.n	80014f2 <HAL_RCC_OscConfig+0x32>
 80014d0:	6823      	ldr	r3, [r4, #0]
 80014d2:	079b      	lsls	r3, r3, #30
 80014d4:	d45e      	bmi.n	8001594 <HAL_RCC_OscConfig+0xd4>
 80014d6:	6823      	ldr	r3, [r4, #0]
 80014d8:	071b      	lsls	r3, r3, #28
 80014da:	d500      	bpl.n	80014de <HAL_RCC_OscConfig+0x1e>
 80014dc:	e0c2      	b.n	8001664 <HAL_RCC_OscConfig+0x1a4>
 80014de:	6823      	ldr	r3, [r4, #0]
 80014e0:	075b      	lsls	r3, r3, #29
 80014e2:	d500      	bpl.n	80014e6 <HAL_RCC_OscConfig+0x26>
 80014e4:	e0f3      	b.n	80016ce <HAL_RCC_OscConfig+0x20e>
 80014e6:	69e3      	ldr	r3, [r4, #28]
 80014e8:	2b00      	cmp	r3, #0
 80014ea:	d000      	beq.n	80014ee <HAL_RCC_OscConfig+0x2e>
 80014ec:	e17a      	b.n	80017e4 <HAL_RCC_OscConfig+0x324>
 80014ee:	2000      	movs	r0, #0
 80014f0:	e029      	b.n	8001546 <HAL_RCC_OscConfig+0x86>
 80014f2:	2238      	movs	r2, #56	; 0x38
 80014f4:	4daf      	ldr	r5, [pc, #700]	; (80017b4 <HAL_RCC_OscConfig+0x2f4>)
 80014f6:	68ab      	ldr	r3, [r5, #8]
 80014f8:	4013      	ands	r3, r2
 80014fa:	68ea      	ldr	r2, [r5, #12]
 80014fc:	2b10      	cmp	r3, #16
 80014fe:	d10a      	bne.n	8001516 <HAL_RCC_OscConfig+0x56>
 8001500:	43d3      	mvns	r3, r2
 8001502:	079b      	lsls	r3, r3, #30
 8001504:	d109      	bne.n	800151a <HAL_RCC_OscConfig+0x5a>
 8001506:	682b      	ldr	r3, [r5, #0]
 8001508:	039b      	lsls	r3, r3, #14
 800150a:	d5e1      	bpl.n	80014d0 <HAL_RCC_OscConfig+0x10>
 800150c:	6863      	ldr	r3, [r4, #4]
 800150e:	2b00      	cmp	r3, #0
 8001510:	d1de      	bne.n	80014d0 <HAL_RCC_OscConfig+0x10>
 8001512:	2001      	movs	r0, #1
 8001514:	e017      	b.n	8001546 <HAL_RCC_OscConfig+0x86>
 8001516:	2b08      	cmp	r3, #8
 8001518:	d0f5      	beq.n	8001506 <HAL_RCC_OscConfig+0x46>
 800151a:	2280      	movs	r2, #128	; 0x80
 800151c:	6863      	ldr	r3, [r4, #4]
 800151e:	0252      	lsls	r2, r2, #9
 8001520:	4293      	cmp	r3, r2
 8001522:	d112      	bne.n	800154a <HAL_RCC_OscConfig+0x8a>
 8001524:	682a      	ldr	r2, [r5, #0]
 8001526:	4313      	orrs	r3, r2
 8001528:	602b      	str	r3, [r5, #0]
 800152a:	f7ff fb69 	bl	8000c00 <HAL_GetTick>
 800152e:	2780      	movs	r7, #128	; 0x80
 8001530:	0006      	movs	r6, r0
 8001532:	02bf      	lsls	r7, r7, #10
 8001534:	682b      	ldr	r3, [r5, #0]
 8001536:	423b      	tst	r3, r7
 8001538:	d1ca      	bne.n	80014d0 <HAL_RCC_OscConfig+0x10>
 800153a:	f7ff fb61 	bl	8000c00 <HAL_GetTick>
 800153e:	1b80      	subs	r0, r0, r6
 8001540:	2864      	cmp	r0, #100	; 0x64
 8001542:	d9f7      	bls.n	8001534 <HAL_RCC_OscConfig+0x74>
 8001544:	2003      	movs	r0, #3
 8001546:	b005      	add	sp, #20
 8001548:	bdf0      	pop	{r4, r5, r6, r7, pc}
 800154a:	21a0      	movs	r1, #160	; 0xa0
 800154c:	02c9      	lsls	r1, r1, #11
 800154e:	428b      	cmp	r3, r1
 8001550:	d108      	bne.n	8001564 <HAL_RCC_OscConfig+0xa4>
 8001552:	2380      	movs	r3, #128	; 0x80
 8001554:	6829      	ldr	r1, [r5, #0]
 8001556:	02db      	lsls	r3, r3, #11
 8001558:	430b      	orrs	r3, r1
 800155a:	602b      	str	r3, [r5, #0]
 800155c:	682b      	ldr	r3, [r5, #0]
 800155e:	431a      	orrs	r2, r3
 8001560:	602a      	str	r2, [r5, #0]
 8001562:	e7e2      	b.n	800152a <HAL_RCC_OscConfig+0x6a>
 8001564:	682a      	ldr	r2, [r5, #0]
 8001566:	4994      	ldr	r1, [pc, #592]	; (80017b8 <HAL_RCC_OscConfig+0x2f8>)
 8001568:	400a      	ands	r2, r1
 800156a:	602a      	str	r2, [r5, #0]
 800156c:	682a      	ldr	r2, [r5, #0]
 800156e:	4993      	ldr	r1, [pc, #588]	; (80017bc <HAL_RCC_OscConfig+0x2fc>)
 8001570:	400a      	ands	r2, r1
 8001572:	602a      	str	r2, [r5, #0]
 8001574:	2b00      	cmp	r3, #0
 8001576:	d1d8      	bne.n	800152a <HAL_RCC_OscConfig+0x6a>
 8001578:	f7ff fb42 	bl	8000c00 <HAL_GetTick>
 800157c:	2780      	movs	r7, #128	; 0x80
 800157e:	0006      	movs	r6, r0
 8001580:	02bf      	lsls	r7, r7, #10
 8001582:	682b      	ldr	r3, [r5, #0]
 8001584:	423b      	tst	r3, r7
 8001586:	d0a3      	beq.n	80014d0 <HAL_RCC_OscConfig+0x10>
 8001588:	f7ff fb3a 	bl	8000c00 <HAL_GetTick>
 800158c:	1b80      	subs	r0, r0, r6
 800158e:	2864      	cmp	r0, #100	; 0x64
 8001590:	d9f7      	bls.n	8001582 <HAL_RCC_OscConfig+0xc2>
 8001592:	e7d7      	b.n	8001544 <HAL_RCC_OscConfig+0x84>
 8001594:	2238      	movs	r2, #56	; 0x38
 8001596:	4d87      	ldr	r5, [pc, #540]	; (80017b4 <HAL_RCC_OscConfig+0x2f4>)
 8001598:	68ab      	ldr	r3, [r5, #8]
 800159a:	4013      	ands	r3, r2
 800159c:	68ea      	ldr	r2, [r5, #12]
 800159e:	2b10      	cmp	r3, #16
 80015a0:	d127      	bne.n	80015f2 <HAL_RCC_OscConfig+0x132>
 80015a2:	2103      	movs	r1, #3
 80015a4:	400a      	ands	r2, r1
 80015a6:	2a02      	cmp	r2, #2
 80015a8:	d125      	bne.n	80015f6 <HAL_RCC_OscConfig+0x136>
 80015aa:	682a      	ldr	r2, [r5, #0]
 80015ac:	0552      	lsls	r2, r2, #21
 80015ae:	d502      	bpl.n	80015b6 <HAL_RCC_OscConfig+0xf6>
 80015b0:	68e2      	ldr	r2, [r4, #12]
 80015b2:	2a00      	cmp	r2, #0
 80015b4:	d0ad      	beq.n	8001512 <HAL_RCC_OscConfig+0x52>
 80015b6:	6869      	ldr	r1, [r5, #4]
 80015b8:	6962      	ldr	r2, [r4, #20]
 80015ba:	4881      	ldr	r0, [pc, #516]	; (80017c0 <HAL_RCC_OscConfig+0x300>)
 80015bc:	0212      	lsls	r2, r2, #8
 80015be:	4001      	ands	r1, r0
 80015c0:	430a      	orrs	r2, r1
 80015c2:	606a      	str	r2, [r5, #4]
 80015c4:	2b00      	cmp	r3, #0
 80015c6:	d10c      	bne.n	80015e2 <HAL_RCC_OscConfig+0x122>
 80015c8:	682b      	ldr	r3, [r5, #0]
 80015ca:	4a7e      	ldr	r2, [pc, #504]	; (80017c4 <HAL_RCC_OscConfig+0x304>)
 80015cc:	497e      	ldr	r1, [pc, #504]	; (80017c8 <HAL_RCC_OscConfig+0x308>)
 80015ce:	4013      	ands	r3, r2
 80015d0:	6922      	ldr	r2, [r4, #16]
 80015d2:	4313      	orrs	r3, r2
 80015d4:	602b      	str	r3, [r5, #0]
 80015d6:	682b      	ldr	r3, [r5, #0]
 80015d8:	4a7c      	ldr	r2, [pc, #496]	; (80017cc <HAL_RCC_OscConfig+0x30c>)
 80015da:	049b      	lsls	r3, r3, #18
 80015dc:	0f5b      	lsrs	r3, r3, #29
 80015de:	40da      	lsrs	r2, r3
 80015e0:	600a      	str	r2, [r1, #0]
 80015e2:	4b7b      	ldr	r3, [pc, #492]	; (80017d0 <HAL_RCC_OscConfig+0x310>)
 80015e4:	6818      	ldr	r0, [r3, #0]
 80015e6:	f7ff fac3 	bl	8000b70 <HAL_InitTick>
 80015ea:	2800      	cmp	r0, #0
 80015ec:	d100      	bne.n	80015f0 <HAL_RCC_OscConfig+0x130>
 80015ee:	e772      	b.n	80014d6 <HAL_RCC_OscConfig+0x16>
 80015f0:	e78f      	b.n	8001512 <HAL_RCC_OscConfig+0x52>
 80015f2:	2b00      	cmp	r3, #0
 80015f4:	d0d9      	beq.n	80015aa <HAL_RCC_OscConfig+0xea>
 80015f6:	68e3      	ldr	r3, [r4, #12]
 80015f8:	2b00      	cmp	r3, #0
 80015fa:	d020      	beq.n	800163e <HAL_RCC_OscConfig+0x17e>
 80015fc:	682b      	ldr	r3, [r5, #0]
 80015fe:	4a71      	ldr	r2, [pc, #452]	; (80017c4 <HAL_RCC_OscConfig+0x304>)
 8001600:	2780      	movs	r7, #128	; 0x80
 8001602:	4013      	ands	r3, r2
 8001604:	6922      	ldr	r2, [r4, #16]
 8001606:	00ff      	lsls	r7, r7, #3
 8001608:	4313      	orrs	r3, r2
 800160a:	602b      	str	r3, [r5, #0]
 800160c:	2380      	movs	r3, #128	; 0x80
 800160e:	682a      	ldr	r2, [r5, #0]
 8001610:	005b      	lsls	r3, r3, #1
 8001612:	4313      	orrs	r3, r2
 8001614:	602b      	str	r3, [r5, #0]
 8001616:	f7ff faf3 	bl	8000c00 <HAL_GetTick>
 800161a:	0006      	movs	r6, r0
 800161c:	682b      	ldr	r3, [r5, #0]
 800161e:	423b      	tst	r3, r7
 8001620:	d007      	beq.n	8001632 <HAL_RCC_OscConfig+0x172>
 8001622:	686a      	ldr	r2, [r5, #4]
 8001624:	6963      	ldr	r3, [r4, #20]
 8001626:	4966      	ldr	r1, [pc, #408]	; (80017c0 <HAL_RCC_OscConfig+0x300>)
 8001628:	021b      	lsls	r3, r3, #8
 800162a:	400a      	ands	r2, r1
 800162c:	4313      	orrs	r3, r2
 800162e:	606b      	str	r3, [r5, #4]
 8001630:	e751      	b.n	80014d6 <HAL_RCC_OscConfig+0x16>
 8001632:	f7ff fae5 	bl	8000c00 <HAL_GetTick>
 8001636:	1b80      	subs	r0, r0, r6
 8001638:	2802      	cmp	r0, #2
 800163a:	d9ef      	bls.n	800161c <HAL_RCC_OscConfig+0x15c>
 800163c:	e782      	b.n	8001544 <HAL_RCC_OscConfig+0x84>
 800163e:	682b      	ldr	r3, [r5, #0]
 8001640:	4a64      	ldr	r2, [pc, #400]	; (80017d4 <HAL_RCC_OscConfig+0x314>)
 8001642:	2780      	movs	r7, #128	; 0x80
 8001644:	4013      	ands	r3, r2
 8001646:	602b      	str	r3, [r5, #0]
 8001648:	f7ff fada 	bl	8000c00 <HAL_GetTick>
 800164c:	0006      	movs	r6, r0
 800164e:	00ff      	lsls	r7, r7, #3
 8001650:	682b      	ldr	r3, [r5, #0]
 8001652:	423b      	tst	r3, r7
 8001654:	d100      	bne.n	8001658 <HAL_RCC_OscConfig+0x198>
 8001656:	e73e      	b.n	80014d6 <HAL_RCC_OscConfig+0x16>
 8001658:	f7ff fad2 	bl	8000c00 <HAL_GetTick>
 800165c:	1b80      	subs	r0, r0, r6
 800165e:	2802      	cmp	r0, #2
 8001660:	d9f6      	bls.n	8001650 <HAL_RCC_OscConfig+0x190>
 8001662:	e76f      	b.n	8001544 <HAL_RCC_OscConfig+0x84>
 8001664:	2238      	movs	r2, #56	; 0x38
 8001666:	4d53      	ldr	r5, [pc, #332]	; (80017b4 <HAL_RCC_OscConfig+0x2f4>)
 8001668:	68ab      	ldr	r3, [r5, #8]
 800166a:	4013      	ands	r3, r2
 800166c:	2b18      	cmp	r3, #24
 800166e:	d108      	bne.n	8001682 <HAL_RCC_OscConfig+0x1c2>
 8001670:	6e2b      	ldr	r3, [r5, #96]	; 0x60
 8001672:	079b      	lsls	r3, r3, #30
 8001674:	d400      	bmi.n	8001678 <HAL_RCC_OscConfig+0x1b8>
 8001676:	e732      	b.n	80014de <HAL_RCC_OscConfig+0x1e>
 8001678:	69a3      	ldr	r3, [r4, #24]
 800167a:	2b00      	cmp	r3, #0
 800167c:	d000      	beq.n	8001680 <HAL_RCC_OscConfig+0x1c0>
 800167e:	e72e      	b.n	80014de <HAL_RCC_OscConfig+0x1e>
 8001680:	e747      	b.n	8001512 <HAL_RCC_OscConfig+0x52>
 8001682:	69a2      	ldr	r2, [r4, #24]
 8001684:	2301      	movs	r3, #1
 8001686:	2a00      	cmp	r2, #0
 8001688:	d010      	beq.n	80016ac <HAL_RCC_OscConfig+0x1ec>
 800168a:	6e2a      	ldr	r2, [r5, #96]	; 0x60
 800168c:	2702      	movs	r7, #2
 800168e:	4313      	orrs	r3, r2
 8001690:	662b      	str	r3, [r5, #96]	; 0x60
 8001692:	f7ff fab5 	bl	8000c00 <HAL_GetTick>
 8001696:	0006      	movs	r6, r0
 8001698:	6e2b      	ldr	r3, [r5, #96]	; 0x60
 800169a:	423b      	tst	r3, r7
 800169c:	d000      	beq.n	80016a0 <HAL_RCC_OscConfig+0x1e0>
 800169e:	e71e      	b.n	80014de <HAL_RCC_OscConfig+0x1e>
 80016a0:	f7ff faae 	bl	8000c00 <HAL_GetTick>
 80016a4:	1b80      	subs	r0, r0, r6
 80016a6:	2802      	cmp	r0, #2
 80016a8:	d9f6      	bls.n	8001698 <HAL_RCC_OscConfig+0x1d8>
 80016aa:	e74b      	b.n	8001544 <HAL_RCC_OscConfig+0x84>
 80016ac:	6e2a      	ldr	r2, [r5, #96]	; 0x60
 80016ae:	2702      	movs	r7, #2
 80016b0:	439a      	bics	r2, r3
 80016b2:	662a      	str	r2, [r5, #96]	; 0x60
 80016b4:	f7ff faa4 	bl	8000c00 <HAL_GetTick>
 80016b8:	0006      	movs	r6, r0
 80016ba:	6e2b      	ldr	r3, [r5, #96]	; 0x60
 80016bc:	423b      	tst	r3, r7
 80016be:	d100      	bne.n	80016c2 <HAL_RCC_OscConfig+0x202>
 80016c0:	e70d      	b.n	80014de <HAL_RCC_OscConfig+0x1e>
 80016c2:	f7ff fa9d 	bl	8000c00 <HAL_GetTick>
 80016c6:	1b80      	subs	r0, r0, r6
 80016c8:	2802      	cmp	r0, #2
 80016ca:	d9f6      	bls.n	80016ba <HAL_RCC_OscConfig+0x1fa>
 80016cc:	e73a      	b.n	8001544 <HAL_RCC_OscConfig+0x84>
 80016ce:	2238      	movs	r2, #56	; 0x38
 80016d0:	4d38      	ldr	r5, [pc, #224]	; (80017b4 <HAL_RCC_OscConfig+0x2f4>)
 80016d2:	68ab      	ldr	r3, [r5, #8]
 80016d4:	4013      	ands	r3, r2
 80016d6:	2b20      	cmp	r3, #32
 80016d8:	d108      	bne.n	80016ec <HAL_RCC_OscConfig+0x22c>
 80016da:	6deb      	ldr	r3, [r5, #92]	; 0x5c
 80016dc:	079b      	lsls	r3, r3, #30
 80016de:	d400      	bmi.n	80016e2 <HAL_RCC_OscConfig+0x222>
 80016e0:	e701      	b.n	80014e6 <HAL_RCC_OscConfig+0x26>
 80016e2:	68a3      	ldr	r3, [r4, #8]
 80016e4:	2b00      	cmp	r3, #0
 80016e6:	d000      	beq.n	80016ea <HAL_RCC_OscConfig+0x22a>
 80016e8:	e6fd      	b.n	80014e6 <HAL_RCC_OscConfig+0x26>
 80016ea:	e712      	b.n	8001512 <HAL_RCC_OscConfig+0x52>
 80016ec:	2280      	movs	r2, #128	; 0x80
 80016ee:	2100      	movs	r1, #0
 80016f0:	6beb      	ldr	r3, [r5, #60]	; 0x3c
 80016f2:	0552      	lsls	r2, r2, #21
 80016f4:	9100      	str	r1, [sp, #0]
 80016f6:	4213      	tst	r3, r2
 80016f8:	d108      	bne.n	800170c <HAL_RCC_OscConfig+0x24c>
 80016fa:	6beb      	ldr	r3, [r5, #60]	; 0x3c
 80016fc:	4313      	orrs	r3, r2
 80016fe:	63eb      	str	r3, [r5, #60]	; 0x3c
 8001700:	6beb      	ldr	r3, [r5, #60]	; 0x3c
 8001702:	4013      	ands	r3, r2
 8001704:	9303      	str	r3, [sp, #12]
 8001706:	9b03      	ldr	r3, [sp, #12]
 8001708:	2301      	movs	r3, #1
 800170a:	9300      	str	r3, [sp, #0]
 800170c:	2780      	movs	r7, #128	; 0x80
 800170e:	4e32      	ldr	r6, [pc, #200]	; (80017d8 <HAL_RCC_OscConfig+0x318>)
 8001710:	007f      	lsls	r7, r7, #1
 8001712:	6833      	ldr	r3, [r6, #0]
 8001714:	423b      	tst	r3, r7
 8001716:	d015      	beq.n	8001744 <HAL_RCC_OscConfig+0x284>
 8001718:	68a3      	ldr	r3, [r4, #8]
 800171a:	2b01      	cmp	r3, #1
 800171c:	d122      	bne.n	8001764 <HAL_RCC_OscConfig+0x2a4>
 800171e:	6dea      	ldr	r2, [r5, #92]	; 0x5c
 8001720:	4313      	orrs	r3, r2
 8001722:	65eb      	str	r3, [r5, #92]	; 0x5c
 8001724:	f7ff fa6c 	bl	8000c00 <HAL_GetTick>
 8001728:	2702      	movs	r7, #2
 800172a:	0006      	movs	r6, r0
 800172c:	6deb      	ldr	r3, [r5, #92]	; 0x5c
 800172e:	423b      	tst	r3, r7
 8001730:	d038      	beq.n	80017a4 <HAL_RCC_OscConfig+0x2e4>
 8001732:	9b00      	ldr	r3, [sp, #0]
 8001734:	2b01      	cmp	r3, #1
 8001736:	d000      	beq.n	800173a <HAL_RCC_OscConfig+0x27a>
 8001738:	e6d5      	b.n	80014e6 <HAL_RCC_OscConfig+0x26>
 800173a:	6beb      	ldr	r3, [r5, #60]	; 0x3c
 800173c:	4a27      	ldr	r2, [pc, #156]	; (80017dc <HAL_RCC_OscConfig+0x31c>)
 800173e:	4013      	ands	r3, r2
 8001740:	63eb      	str	r3, [r5, #60]	; 0x3c
 8001742:	e6d0      	b.n	80014e6 <HAL_RCC_OscConfig+0x26>
 8001744:	6833      	ldr	r3, [r6, #0]
 8001746:	433b      	orrs	r3, r7
 8001748:	6033      	str	r3, [r6, #0]
 800174a:	f7ff fa59 	bl	8000c00 <HAL_GetTick>
 800174e:	9001      	str	r0, [sp, #4]
 8001750:	6833      	ldr	r3, [r6, #0]
 8001752:	423b      	tst	r3, r7
 8001754:	d1e0      	bne.n	8001718 <HAL_RCC_OscConfig+0x258>
 8001756:	f7ff fa53 	bl	8000c00 <HAL_GetTick>
 800175a:	9b01      	ldr	r3, [sp, #4]
 800175c:	1ac0      	subs	r0, r0, r3
 800175e:	2802      	cmp	r0, #2
 8001760:	d9f6      	bls.n	8001750 <HAL_RCC_OscConfig+0x290>
 8001762:	e6ef      	b.n	8001544 <HAL_RCC_OscConfig+0x84>
 8001764:	6dea      	ldr	r2, [r5, #92]	; 0x5c
 8001766:	2b05      	cmp	r3, #5
 8001768:	d105      	bne.n	8001776 <HAL_RCC_OscConfig+0x2b6>
 800176a:	3b01      	subs	r3, #1
 800176c:	4313      	orrs	r3, r2
 800176e:	65eb      	str	r3, [r5, #92]	; 0x5c
 8001770:	6dea      	ldr	r2, [r5, #92]	; 0x5c
 8001772:	2301      	movs	r3, #1
 8001774:	e7d4      	b.n	8001720 <HAL_RCC_OscConfig+0x260>
 8001776:	2101      	movs	r1, #1
 8001778:	438a      	bics	r2, r1
 800177a:	65ea      	str	r2, [r5, #92]	; 0x5c
 800177c:	6dea      	ldr	r2, [r5, #92]	; 0x5c
 800177e:	3103      	adds	r1, #3
 8001780:	438a      	bics	r2, r1
 8001782:	65ea      	str	r2, [r5, #92]	; 0x5c
 8001784:	2b00      	cmp	r3, #0
 8001786:	d1cd      	bne.n	8001724 <HAL_RCC_OscConfig+0x264>
 8001788:	f7ff fa3a 	bl	8000c00 <HAL_GetTick>
 800178c:	2702      	movs	r7, #2
 800178e:	0006      	movs	r6, r0
 8001790:	6deb      	ldr	r3, [r5, #92]	; 0x5c
 8001792:	423b      	tst	r3, r7
 8001794:	d0cd      	beq.n	8001732 <HAL_RCC_OscConfig+0x272>
 8001796:	f7ff fa33 	bl	8000c00 <HAL_GetTick>
 800179a:	4b11      	ldr	r3, [pc, #68]	; (80017e0 <HAL_RCC_OscConfig+0x320>)
 800179c:	1b80      	subs	r0, r0, r6
 800179e:	4298      	cmp	r0, r3
 80017a0:	d9f6      	bls.n	8001790 <HAL_RCC_OscConfig+0x2d0>
 80017a2:	e6cf      	b.n	8001544 <HAL_RCC_OscConfig+0x84>
 80017a4:	f7ff fa2c 	bl	8000c00 <HAL_GetTick>
 80017a8:	4b0d      	ldr	r3, [pc, #52]	; (80017e0 <HAL_RCC_OscConfig+0x320>)
 80017aa:	1b80      	subs	r0, r0, r6
 80017ac:	4298      	cmp	r0, r3
 80017ae:	d9bd      	bls.n	800172c <HAL_RCC_OscConfig+0x26c>
 80017b0:	e6c8      	b.n	8001544 <HAL_RCC_OscConfig+0x84>
 80017b2:	46c0      	nop			; (mov r8, r8)
 80017b4:	40021000 	.word	0x40021000
 80017b8:	fffeffff 	.word	0xfffeffff
 80017bc:	fffbffff 	.word	0xfffbffff
 80017c0:	ffff80ff 	.word	0xffff80ff
 80017c4:	ffffc7ff 	.word	0xffffc7ff
 80017c8:	20000000 	.word	0x20000000
 80017cc:	00f42400 	.word	0x00f42400
 80017d0:	20000008 	.word	0x20000008
 80017d4:	fffffeff 	.word	0xfffffeff
 80017d8:	40007000 	.word	0x40007000
 80017dc:	efffffff 	.word	0xefffffff
 80017e0:	00001388 	.word	0x00001388
 80017e4:	2138      	movs	r1, #56	; 0x38
 80017e6:	4d3f      	ldr	r5, [pc, #252]	; (80018e4 <HAL_RCC_OscConfig+0x424>)
 80017e8:	68aa      	ldr	r2, [r5, #8]
 80017ea:	400a      	ands	r2, r1
 80017ec:	2a10      	cmp	r2, #16
 80017ee:	d053      	beq.n	8001898 <HAL_RCC_OscConfig+0x3d8>
 80017f0:	4a3d      	ldr	r2, [pc, #244]	; (80018e8 <HAL_RCC_OscConfig+0x428>)
 80017f2:	2b02      	cmp	r3, #2
 80017f4:	d138      	bne.n	8001868 <HAL_RCC_OscConfig+0x3a8>
 80017f6:	682b      	ldr	r3, [r5, #0]
 80017f8:	2780      	movs	r7, #128	; 0x80
 80017fa:	4013      	ands	r3, r2
 80017fc:	602b      	str	r3, [r5, #0]
 80017fe:	f7ff f9ff 	bl	8000c00 <HAL_GetTick>
 8001802:	0006      	movs	r6, r0
 8001804:	04bf      	lsls	r7, r7, #18
 8001806:	682b      	ldr	r3, [r5, #0]
 8001808:	423b      	tst	r3, r7
 800180a:	d127      	bne.n	800185c <HAL_RCC_OscConfig+0x39c>
 800180c:	6a61      	ldr	r1, [r4, #36]	; 0x24
 800180e:	6a23      	ldr	r3, [r4, #32]
 8001810:	68ea      	ldr	r2, [r5, #12]
 8001812:	430b      	orrs	r3, r1
 8001814:	4935      	ldr	r1, [pc, #212]	; (80018ec <HAL_RCC_OscConfig+0x42c>)
 8001816:	2680      	movs	r6, #128	; 0x80
 8001818:	400a      	ands	r2, r1
 800181a:	4313      	orrs	r3, r2
 800181c:	6ae2      	ldr	r2, [r4, #44]	; 0x2c
 800181e:	04b6      	lsls	r6, r6, #18
 8001820:	4313      	orrs	r3, r2
 8001822:	6b22      	ldr	r2, [r4, #48]	; 0x30
 8001824:	4313      	orrs	r3, r2
 8001826:	6aa2      	ldr	r2, [r4, #40]	; 0x28
 8001828:	0212      	lsls	r2, r2, #8
 800182a:	4313      	orrs	r3, r2
 800182c:	60eb      	str	r3, [r5, #12]
 800182e:	2380      	movs	r3, #128	; 0x80
 8001830:	682a      	ldr	r2, [r5, #0]
 8001832:	045b      	lsls	r3, r3, #17
 8001834:	4313      	orrs	r3, r2
 8001836:	602b      	str	r3, [r5, #0]
 8001838:	2380      	movs	r3, #128	; 0x80
 800183a:	68ea      	ldr	r2, [r5, #12]
 800183c:	055b      	lsls	r3, r3, #21
 800183e:	4313      	orrs	r3, r2
 8001840:	60eb      	str	r3, [r5, #12]
 8001842:	f7ff f9dd 	bl	8000c00 <HAL_GetTick>
 8001846:	0004      	movs	r4, r0
 8001848:	682b      	ldr	r3, [r5, #0]
 800184a:	4233      	tst	r3, r6
 800184c:	d000      	beq.n	8001850 <HAL_RCC_OscConfig+0x390>
 800184e:	e64e      	b.n	80014ee <HAL_RCC_OscConfig+0x2e>
 8001850:	f7ff f9d6 	bl	8000c00 <HAL_GetTick>
 8001854:	1b00      	subs	r0, r0, r4
 8001856:	2802      	cmp	r0, #2
 8001858:	d9f6      	bls.n	8001848 <HAL_RCC_OscConfig+0x388>
 800185a:	e673      	b.n	8001544 <HAL_RCC_OscConfig+0x84>
 800185c:	f7ff f9d0 	bl	8000c00 <HAL_GetTick>
 8001860:	1b80      	subs	r0, r0, r6
 8001862:	2802      	cmp	r0, #2
 8001864:	d9cf      	bls.n	8001806 <HAL_RCC_OscConfig+0x346>
 8001866:	e66d      	b.n	8001544 <HAL_RCC_OscConfig+0x84>
 8001868:	682b      	ldr	r3, [r5, #0]
 800186a:	2680      	movs	r6, #128	; 0x80
 800186c:	4013      	ands	r3, r2
 800186e:	602b      	str	r3, [r5, #0]
 8001870:	f7ff f9c6 	bl	8000c00 <HAL_GetTick>
 8001874:	0004      	movs	r4, r0
 8001876:	04b6      	lsls	r6, r6, #18
 8001878:	682b      	ldr	r3, [r5, #0]
 800187a:	0018      	movs	r0, r3
 800187c:	4030      	ands	r0, r6
 800187e:	4233      	tst	r3, r6
 8001880:	d104      	bne.n	800188c <HAL_RCC_OscConfig+0x3cc>
 8001882:	68eb      	ldr	r3, [r5, #12]
 8001884:	4a1a      	ldr	r2, [pc, #104]	; (80018f0 <HAL_RCC_OscConfig+0x430>)
 8001886:	4013      	ands	r3, r2
 8001888:	60eb      	str	r3, [r5, #12]
 800188a:	e65c      	b.n	8001546 <HAL_RCC_OscConfig+0x86>
 800188c:	f7ff f9b8 	bl	8000c00 <HAL_GetTick>
 8001890:	1b00      	subs	r0, r0, r4
 8001892:	2802      	cmp	r0, #2
 8001894:	d9f0      	bls.n	8001878 <HAL_RCC_OscConfig+0x3b8>
 8001896:	e655      	b.n	8001544 <HAL_RCC_OscConfig+0x84>
 8001898:	2b01      	cmp	r3, #1
 800189a:	d100      	bne.n	800189e <HAL_RCC_OscConfig+0x3de>
 800189c:	e639      	b.n	8001512 <HAL_RCC_OscConfig+0x52>
 800189e:	2203      	movs	r2, #3
 80018a0:	68eb      	ldr	r3, [r5, #12]
 80018a2:	6a21      	ldr	r1, [r4, #32]
 80018a4:	401a      	ands	r2, r3
 80018a6:	428a      	cmp	r2, r1
 80018a8:	d000      	beq.n	80018ac <HAL_RCC_OscConfig+0x3ec>
 80018aa:	e632      	b.n	8001512 <HAL_RCC_OscConfig+0x52>
 80018ac:	2270      	movs	r2, #112	; 0x70
 80018ae:	6a61      	ldr	r1, [r4, #36]	; 0x24
 80018b0:	401a      	ands	r2, r3
 80018b2:	428a      	cmp	r2, r1
 80018b4:	d000      	beq.n	80018b8 <HAL_RCC_OscConfig+0x3f8>
 80018b6:	e62c      	b.n	8001512 <HAL_RCC_OscConfig+0x52>
 80018b8:	21fe      	movs	r1, #254	; 0xfe
 80018ba:	6aa2      	ldr	r2, [r4, #40]	; 0x28
 80018bc:	01c9      	lsls	r1, r1, #7
 80018be:	4019      	ands	r1, r3
 80018c0:	0212      	lsls	r2, r2, #8
 80018c2:	4291      	cmp	r1, r2
 80018c4:	d000      	beq.n	80018c8 <HAL_RCC_OscConfig+0x408>
 80018c6:	e624      	b.n	8001512 <HAL_RCC_OscConfig+0x52>
 80018c8:	22f8      	movs	r2, #248	; 0xf8
 80018ca:	6ae1      	ldr	r1, [r4, #44]	; 0x2c
 80018cc:	0392      	lsls	r2, r2, #14
 80018ce:	401a      	ands	r2, r3
 80018d0:	428a      	cmp	r2, r1
 80018d2:	d000      	beq.n	80018d6 <HAL_RCC_OscConfig+0x416>
 80018d4:	e61d      	b.n	8001512 <HAL_RCC_OscConfig+0x52>
 80018d6:	6b22      	ldr	r2, [r4, #48]	; 0x30
 80018d8:	0f5b      	lsrs	r3, r3, #29
 80018da:	075b      	lsls	r3, r3, #29
 80018dc:	4293      	cmp	r3, r2
 80018de:	d100      	bne.n	80018e2 <HAL_RCC_OscConfig+0x422>
 80018e0:	e605      	b.n	80014ee <HAL_RCC_OscConfig+0x2e>
 80018e2:	e616      	b.n	8001512 <HAL_RCC_OscConfig+0x52>
 80018e4:	40021000 	.word	0x40021000
 80018e8:	feffffff 	.word	0xfeffffff
 80018ec:	1fc1808c 	.word	0x1fc1808c
 80018f0:	effefffc 	.word	0xeffefffc

080018f4 <HAL_RCC_GetSysClockFreq>:
 80018f4:	2338      	movs	r3, #56	; 0x38
 80018f6:	b570      	push	{r4, r5, r6, lr}
 80018f8:	4c1d      	ldr	r4, [pc, #116]	; (8001970 <HAL_RCC_GetSysClockFreq+0x7c>)
 80018fa:	68a2      	ldr	r2, [r4, #8]
 80018fc:	421a      	tst	r2, r3
 80018fe:	d105      	bne.n	800190c <HAL_RCC_GetSysClockFreq+0x18>
 8001900:	6823      	ldr	r3, [r4, #0]
 8001902:	481c      	ldr	r0, [pc, #112]	; (8001974 <HAL_RCC_GetSysClockFreq+0x80>)
 8001904:	049b      	lsls	r3, r3, #18
 8001906:	0f5b      	lsrs	r3, r3, #29
 8001908:	40d8      	lsrs	r0, r3
 800190a:	bd70      	pop	{r4, r5, r6, pc}
 800190c:	68a2      	ldr	r2, [r4, #8]
 800190e:	401a      	ands	r2, r3
 8001910:	2a08      	cmp	r2, #8
 8001912:	d027      	beq.n	8001964 <HAL_RCC_GetSysClockFreq+0x70>
 8001914:	68a2      	ldr	r2, [r4, #8]
 8001916:	401a      	ands	r2, r3
 8001918:	2a10      	cmp	r2, #16
 800191a:	d117      	bne.n	800194c <HAL_RCC_GetSysClockFreq+0x58>
 800191c:	68e3      	ldr	r3, [r4, #12]
 800191e:	68e1      	ldr	r1, [r4, #12]
 8001920:	43db      	mvns	r3, r3
 8001922:	68e5      	ldr	r5, [r4, #12]
 8001924:	0649      	lsls	r1, r1, #25
 8001926:	0f49      	lsrs	r1, r1, #29
 8001928:	326f      	adds	r2, #111	; 0x6f
 800192a:	0a2d      	lsrs	r5, r5, #8
 800192c:	3101      	adds	r1, #1
 800192e:	4015      	ands	r5, r2
 8001930:	079b      	lsls	r3, r3, #30
 8001932:	d109      	bne.n	8001948 <HAL_RCC_GetSysClockFreq+0x54>
 8001934:	4810      	ldr	r0, [pc, #64]	; (8001978 <HAL_RCC_GetSysClockFreq+0x84>)
 8001936:	f7fe fbed 	bl	8000114 <__udivsi3>
 800193a:	68e1      	ldr	r1, [r4, #12]
 800193c:	4368      	muls	r0, r5
 800193e:	0f49      	lsrs	r1, r1, #29
 8001940:	3101      	adds	r1, #1
 8001942:	f7fe fbe7 	bl	8000114 <__udivsi3>
 8001946:	e7e0      	b.n	800190a <HAL_RCC_GetSysClockFreq+0x16>
 8001948:	480a      	ldr	r0, [pc, #40]	; (8001974 <HAL_RCC_GetSysClockFreq+0x80>)
 800194a:	e7f4      	b.n	8001936 <HAL_RCC_GetSysClockFreq+0x42>
 800194c:	68a2      	ldr	r2, [r4, #8]
 800194e:	401a      	ands	r2, r3
 8001950:	2a20      	cmp	r2, #32
 8001952:	d009      	beq.n	8001968 <HAL_RCC_GetSysClockFreq+0x74>
 8001954:	68a2      	ldr	r2, [r4, #8]
 8001956:	2000      	movs	r0, #0
 8001958:	4013      	ands	r3, r2
 800195a:	2b18      	cmp	r3, #24
 800195c:	d1d5      	bne.n	800190a <HAL_RCC_GetSysClockFreq+0x16>
 800195e:	20fa      	movs	r0, #250	; 0xfa
 8001960:	01c0      	lsls	r0, r0, #7
 8001962:	e7d2      	b.n	800190a <HAL_RCC_GetSysClockFreq+0x16>
 8001964:	4804      	ldr	r0, [pc, #16]	; (8001978 <HAL_RCC_GetSysClockFreq+0x84>)
 8001966:	e7d0      	b.n	800190a <HAL_RCC_GetSysClockFreq+0x16>
 8001968:	2080      	movs	r0, #128	; 0x80
 800196a:	0200      	lsls	r0, r0, #8
 800196c:	e7cd      	b.n	800190a <HAL_RCC_GetSysClockFreq+0x16>
 800196e:	46c0      	nop			; (mov r8, r8)
 8001970:	40021000 	.word	0x40021000
 8001974:	00f42400 	.word	0x00f42400
 8001978:	007a1200 	.word	0x007a1200

0800197c <HAL_RCC_ClockConfig>:
 800197c:	b5f7      	push	{r0, r1, r2, r4, r5, r6, r7, lr}
 800197e:	0004      	movs	r4, r0
 8001980:	000d      	movs	r5, r1
 8001982:	2800      	cmp	r0, #0
 8001984:	d101      	bne.n	800198a <HAL_RCC_ClockConfig+0xe>
 8001986:	2001      	movs	r0, #1
 8001988:	bdfe      	pop	{r1, r2, r3, r4, r5, r6, r7, pc}
 800198a:	2707      	movs	r7, #7
 800198c:	4e4a      	ldr	r6, [pc, #296]	; (8001ab8 <HAL_RCC_ClockConfig+0x13c>)
 800198e:	6833      	ldr	r3, [r6, #0]
 8001990:	403b      	ands	r3, r7
 8001992:	428b      	cmp	r3, r1
 8001994:	d32a      	bcc.n	80019ec <HAL_RCC_ClockConfig+0x70>
 8001996:	6822      	ldr	r2, [r4, #0]
 8001998:	0793      	lsls	r3, r2, #30
 800199a:	d43b      	bmi.n	8001a14 <HAL_RCC_ClockConfig+0x98>
 800199c:	07d2      	lsls	r2, r2, #31
 800199e:	d448      	bmi.n	8001a32 <HAL_RCC_ClockConfig+0xb6>
 80019a0:	2707      	movs	r7, #7
 80019a2:	6833      	ldr	r3, [r6, #0]
 80019a4:	403b      	ands	r3, r7
 80019a6:	42ab      	cmp	r3, r5
 80019a8:	d90a      	bls.n	80019c0 <HAL_RCC_ClockConfig+0x44>
 80019aa:	6833      	ldr	r3, [r6, #0]
 80019ac:	43bb      	bics	r3, r7
 80019ae:	432b      	orrs	r3, r5
 80019b0:	6033      	str	r3, [r6, #0]
 80019b2:	f7ff f925 	bl	8000c00 <HAL_GetTick>
 80019b6:	9001      	str	r0, [sp, #4]
 80019b8:	6833      	ldr	r3, [r6, #0]
 80019ba:	403b      	ands	r3, r7
 80019bc:	42ab      	cmp	r3, r5
 80019be:	d16b      	bne.n	8001a98 <HAL_RCC_ClockConfig+0x11c>
 80019c0:	6823      	ldr	r3, [r4, #0]
 80019c2:	4d3e      	ldr	r5, [pc, #248]	; (8001abc <HAL_RCC_ClockConfig+0x140>)
 80019c4:	075b      	lsls	r3, r3, #29
 80019c6:	d46f      	bmi.n	8001aa8 <HAL_RCC_ClockConfig+0x12c>
 80019c8:	f7ff ff94 	bl	80018f4 <HAL_RCC_GetSysClockFreq>
 80019cc:	68ab      	ldr	r3, [r5, #8]
 80019ce:	493c      	ldr	r1, [pc, #240]	; (8001ac0 <HAL_RCC_ClockConfig+0x144>)
 80019d0:	051b      	lsls	r3, r3, #20
 80019d2:	0f1b      	lsrs	r3, r3, #28
 80019d4:	009b      	lsls	r3, r3, #2
 80019d6:	585b      	ldr	r3, [r3, r1]
 80019d8:	211f      	movs	r1, #31
 80019da:	400b      	ands	r3, r1
 80019dc:	40d8      	lsrs	r0, r3
 80019de:	4a39      	ldr	r2, [pc, #228]	; (8001ac4 <HAL_RCC_ClockConfig+0x148>)
 80019e0:	4b39      	ldr	r3, [pc, #228]	; (8001ac8 <HAL_RCC_ClockConfig+0x14c>)
 80019e2:	6010      	str	r0, [r2, #0]
 80019e4:	6818      	ldr	r0, [r3, #0]
 80019e6:	f7ff f8c3 	bl	8000b70 <HAL_InitTick>
 80019ea:	e7cd      	b.n	8001988 <HAL_RCC_ClockConfig+0xc>
 80019ec:	6833      	ldr	r3, [r6, #0]
 80019ee:	43bb      	bics	r3, r7
 80019f0:	430b      	orrs	r3, r1
 80019f2:	6033      	str	r3, [r6, #0]
 80019f4:	f7ff f904 	bl	8000c00 <HAL_GetTick>
 80019f8:	9001      	str	r0, [sp, #4]
 80019fa:	6833      	ldr	r3, [r6, #0]
 80019fc:	403b      	ands	r3, r7
 80019fe:	42ab      	cmp	r3, r5
 8001a00:	d0c9      	beq.n	8001996 <HAL_RCC_ClockConfig+0x1a>
 8001a02:	f7ff f8fd 	bl	8000c00 <HAL_GetTick>
 8001a06:	9b01      	ldr	r3, [sp, #4]
 8001a08:	1ac0      	subs	r0, r0, r3
 8001a0a:	4b30      	ldr	r3, [pc, #192]	; (8001acc <HAL_RCC_ClockConfig+0x150>)
 8001a0c:	4298      	cmp	r0, r3
 8001a0e:	d9f4      	bls.n	80019fa <HAL_RCC_ClockConfig+0x7e>
 8001a10:	2003      	movs	r0, #3
 8001a12:	e7b9      	b.n	8001988 <HAL_RCC_ClockConfig+0xc>
 8001a14:	4929      	ldr	r1, [pc, #164]	; (8001abc <HAL_RCC_ClockConfig+0x140>)
 8001a16:	0753      	lsls	r3, r2, #29
 8001a18:	d504      	bpl.n	8001a24 <HAL_RCC_ClockConfig+0xa8>
 8001a1a:	23e0      	movs	r3, #224	; 0xe0
 8001a1c:	6888      	ldr	r0, [r1, #8]
 8001a1e:	01db      	lsls	r3, r3, #7
 8001a20:	4303      	orrs	r3, r0
 8001a22:	608b      	str	r3, [r1, #8]
 8001a24:	688b      	ldr	r3, [r1, #8]
 8001a26:	482a      	ldr	r0, [pc, #168]	; (8001ad0 <HAL_RCC_ClockConfig+0x154>)
 8001a28:	4003      	ands	r3, r0
 8001a2a:	68a0      	ldr	r0, [r4, #8]
 8001a2c:	4303      	orrs	r3, r0
 8001a2e:	608b      	str	r3, [r1, #8]
 8001a30:	e7b4      	b.n	800199c <HAL_RCC_ClockConfig+0x20>
 8001a32:	6862      	ldr	r2, [r4, #4]
 8001a34:	4f21      	ldr	r7, [pc, #132]	; (8001abc <HAL_RCC_ClockConfig+0x140>)
 8001a36:	2a01      	cmp	r2, #1
 8001a38:	d119      	bne.n	8001a6e <HAL_RCC_ClockConfig+0xf2>
 8001a3a:	683b      	ldr	r3, [r7, #0]
 8001a3c:	039b      	lsls	r3, r3, #14
 8001a3e:	d5a2      	bpl.n	8001986 <HAL_RCC_ClockConfig+0xa>
 8001a40:	2107      	movs	r1, #7
 8001a42:	68bb      	ldr	r3, [r7, #8]
 8001a44:	438b      	bics	r3, r1
 8001a46:	4313      	orrs	r3, r2
 8001a48:	60bb      	str	r3, [r7, #8]
 8001a4a:	f7ff f8d9 	bl	8000c00 <HAL_GetTick>
 8001a4e:	9001      	str	r0, [sp, #4]
 8001a50:	2338      	movs	r3, #56	; 0x38
 8001a52:	68ba      	ldr	r2, [r7, #8]
 8001a54:	401a      	ands	r2, r3
 8001a56:	6863      	ldr	r3, [r4, #4]
 8001a58:	00db      	lsls	r3, r3, #3
 8001a5a:	429a      	cmp	r2, r3
 8001a5c:	d0a0      	beq.n	80019a0 <HAL_RCC_ClockConfig+0x24>
 8001a5e:	f7ff f8cf 	bl	8000c00 <HAL_GetTick>
 8001a62:	9b01      	ldr	r3, [sp, #4]
 8001a64:	1ac0      	subs	r0, r0, r3
 8001a66:	4b19      	ldr	r3, [pc, #100]	; (8001acc <HAL_RCC_ClockConfig+0x150>)
 8001a68:	4298      	cmp	r0, r3
 8001a6a:	d9f1      	bls.n	8001a50 <HAL_RCC_ClockConfig+0xd4>
 8001a6c:	e7d0      	b.n	8001a10 <HAL_RCC_ClockConfig+0x94>
 8001a6e:	2a02      	cmp	r2, #2
 8001a70:	d103      	bne.n	8001a7a <HAL_RCC_ClockConfig+0xfe>
 8001a72:	683b      	ldr	r3, [r7, #0]
 8001a74:	019b      	lsls	r3, r3, #6
 8001a76:	d4e3      	bmi.n	8001a40 <HAL_RCC_ClockConfig+0xc4>
 8001a78:	e785      	b.n	8001986 <HAL_RCC_ClockConfig+0xa>
 8001a7a:	2a00      	cmp	r2, #0
 8001a7c:	d103      	bne.n	8001a86 <HAL_RCC_ClockConfig+0x10a>
 8001a7e:	683b      	ldr	r3, [r7, #0]
 8001a80:	055b      	lsls	r3, r3, #21
 8001a82:	d4dd      	bmi.n	8001a40 <HAL_RCC_ClockConfig+0xc4>
 8001a84:	e77f      	b.n	8001986 <HAL_RCC_ClockConfig+0xa>
 8001a86:	2302      	movs	r3, #2
 8001a88:	2a03      	cmp	r2, #3
 8001a8a:	d103      	bne.n	8001a94 <HAL_RCC_ClockConfig+0x118>
 8001a8c:	6e39      	ldr	r1, [r7, #96]	; 0x60
 8001a8e:	4219      	tst	r1, r3
 8001a90:	d1d6      	bne.n	8001a40 <HAL_RCC_ClockConfig+0xc4>
 8001a92:	e778      	b.n	8001986 <HAL_RCC_ClockConfig+0xa>
 8001a94:	6df9      	ldr	r1, [r7, #92]	; 0x5c
 8001a96:	e7fa      	b.n	8001a8e <HAL_RCC_ClockConfig+0x112>
 8001a98:	f7ff f8b2 	bl	8000c00 <HAL_GetTick>
 8001a9c:	9b01      	ldr	r3, [sp, #4]
 8001a9e:	1ac0      	subs	r0, r0, r3
 8001aa0:	4b0a      	ldr	r3, [pc, #40]	; (8001acc <HAL_RCC_ClockConfig+0x150>)
 8001aa2:	4298      	cmp	r0, r3
 8001aa4:	d988      	bls.n	80019b8 <HAL_RCC_ClockConfig+0x3c>
 8001aa6:	e7b3      	b.n	8001a10 <HAL_RCC_ClockConfig+0x94>
 8001aa8:	68ab      	ldr	r3, [r5, #8]
 8001aaa:	4a0a      	ldr	r2, [pc, #40]	; (8001ad4 <HAL_RCC_ClockConfig+0x158>)
 8001aac:	4013      	ands	r3, r2
 8001aae:	68e2      	ldr	r2, [r4, #12]
 8001ab0:	4313      	orrs	r3, r2
 8001ab2:	60ab      	str	r3, [r5, #8]
 8001ab4:	e788      	b.n	80019c8 <HAL_RCC_ClockConfig+0x4c>
 8001ab6:	46c0      	nop			; (mov r8, r8)
 8001ab8:	40022000 	.word	0x40022000
 8001abc:	40021000 	.word	0x40021000
 8001ac0:	08003fcc 	.word	0x08003fcc
 8001ac4:	20000000 	.word	0x20000000
 8001ac8:	20000008 	.word	0x20000008
 8001acc:	00001388 	.word	0x00001388
 8001ad0:	fffff0ff 	.word	0xfffff0ff
 8001ad4:	ffff8fff 	.word	0xffff8fff

08001ad8 <HAL_RCC_GetPCLK1Freq>:
 8001ad8:	4b06      	ldr	r3, [pc, #24]	; (8001af4 <HAL_RCC_GetPCLK1Freq+0x1c>)
 8001ada:	4907      	ldr	r1, [pc, #28]	; (8001af8 <HAL_RCC_GetPCLK1Freq+0x20>)
 8001adc:	689b      	ldr	r3, [r3, #8]
 8001ade:	4a07      	ldr	r2, [pc, #28]	; (8001afc <HAL_RCC_GetPCLK1Freq+0x24>)
 8001ae0:	045b      	lsls	r3, r3, #17
 8001ae2:	0f5b      	lsrs	r3, r3, #29
 8001ae4:	009b      	lsls	r3, r3, #2
 8001ae6:	585b      	ldr	r3, [r3, r1]
 8001ae8:	211f      	movs	r1, #31
 8001aea:	6810      	ldr	r0, [r2, #0]
 8001aec:	400b      	ands	r3, r1
 8001aee:	40d8      	lsrs	r0, r3
 8001af0:	4770      	bx	lr
 8001af2:	46c0      	nop			; (mov r8, r8)
 8001af4:	40021000 	.word	0x40021000
 8001af8:	0800400c 	.word	0x0800400c
 8001afc:	20000000 	.word	0x20000000

08001b00 <HAL_RCCEx_PeriphCLKConfig>:
 8001b00:	b5f0      	push	{r4, r5, r6, r7, lr}
 8001b02:	6803      	ldr	r3, [r0, #0]
 8001b04:	0005      	movs	r5, r0
 8001b06:	b085      	sub	sp, #20
 8001b08:	2000      	movs	r0, #0
 8001b0a:	039b      	lsls	r3, r3, #14
 8001b0c:	d53b      	bpl.n	8001b86 <HAL_RCCEx_PeriphCLKConfig+0x86>
 8001b0e:	2280      	movs	r2, #128	; 0x80
 8001b10:	4c48      	ldr	r4, [pc, #288]	; (8001c34 <HAL_RCCEx_PeriphCLKConfig+0x134>)
 8001b12:	0552      	lsls	r2, r2, #21
 8001b14:	6be3      	ldr	r3, [r4, #60]	; 0x3c
 8001b16:	9000      	str	r0, [sp, #0]
 8001b18:	4213      	tst	r3, r2
 8001b1a:	d108      	bne.n	8001b2e <HAL_RCCEx_PeriphCLKConfig+0x2e>
 8001b1c:	6be3      	ldr	r3, [r4, #60]	; 0x3c
 8001b1e:	4313      	orrs	r3, r2
 8001b20:	63e3      	str	r3, [r4, #60]	; 0x3c
 8001b22:	6be3      	ldr	r3, [r4, #60]	; 0x3c
 8001b24:	4013      	ands	r3, r2
 8001b26:	9303      	str	r3, [sp, #12]
 8001b28:	9b03      	ldr	r3, [sp, #12]
 8001b2a:	2301      	movs	r3, #1
 8001b2c:	9300      	str	r3, [sp, #0]
 8001b2e:	2780      	movs	r7, #128	; 0x80
 8001b30:	4e41      	ldr	r6, [pc, #260]	; (8001c38 <HAL_RCCEx_PeriphCLKConfig+0x138>)
 8001b32:	007f      	lsls	r7, r7, #1
 8001b34:	6833      	ldr	r3, [r6, #0]
 8001b36:	433b      	orrs	r3, r7
 8001b38:	6033      	str	r3, [r6, #0]
 8001b3a:	f7ff f861 	bl	8000c00 <HAL_GetTick>
 8001b3e:	9001      	str	r0, [sp, #4]
 8001b40:	6833      	ldr	r3, [r6, #0]
 8001b42:	423b      	tst	r3, r7
 8001b44:	d011      	beq.n	8001b6a <HAL_RCCEx_PeriphCLKConfig+0x6a>
 8001b46:	6de2      	ldr	r2, [r4, #92]	; 0x5c
 8001b48:	23c0      	movs	r3, #192	; 0xc0
 8001b4a:	0010      	movs	r0, r2
 8001b4c:	009b      	lsls	r3, r3, #2
 8001b4e:	6969      	ldr	r1, [r5, #20]
 8001b50:	4e3a      	ldr	r6, [pc, #232]	; (8001c3c <HAL_RCCEx_PeriphCLKConfig+0x13c>)
 8001b52:	4018      	ands	r0, r3
 8001b54:	421a      	tst	r2, r3
 8001b56:	d001      	beq.n	8001b5c <HAL_RCCEx_PeriphCLKConfig+0x5c>
 8001b58:	4288      	cmp	r0, r1
 8001b5a:	d14d      	bne.n	8001bf8 <HAL_RCCEx_PeriphCLKConfig+0xf8>
 8001b5c:	6de3      	ldr	r3, [r4, #92]	; 0x5c
 8001b5e:	696a      	ldr	r2, [r5, #20]
 8001b60:	4033      	ands	r3, r6
 8001b62:	4313      	orrs	r3, r2
 8001b64:	2000      	movs	r0, #0
 8001b66:	65e3      	str	r3, [r4, #92]	; 0x5c
 8001b68:	e006      	b.n	8001b78 <HAL_RCCEx_PeriphCLKConfig+0x78>
 8001b6a:	f7ff f849 	bl	8000c00 <HAL_GetTick>
 8001b6e:	9b01      	ldr	r3, [sp, #4]
 8001b70:	1ac0      	subs	r0, r0, r3
 8001b72:	2802      	cmp	r0, #2
 8001b74:	d9e4      	bls.n	8001b40 <HAL_RCCEx_PeriphCLKConfig+0x40>
 8001b76:	2003      	movs	r0, #3
 8001b78:	9b00      	ldr	r3, [sp, #0]
 8001b7a:	2b01      	cmp	r3, #1
 8001b7c:	d103      	bne.n	8001b86 <HAL_RCCEx_PeriphCLKConfig+0x86>
 8001b7e:	6be3      	ldr	r3, [r4, #60]	; 0x3c
 8001b80:	4a2f      	ldr	r2, [pc, #188]	; (8001c40 <HAL_RCCEx_PeriphCLKConfig+0x140>)
 8001b82:	4013      	ands	r3, r2
 8001b84:	63e3      	str	r3, [r4, #60]	; 0x3c
 8001b86:	682a      	ldr	r2, [r5, #0]
 8001b88:	07d3      	lsls	r3, r2, #31
 8001b8a:	d506      	bpl.n	8001b9a <HAL_RCCEx_PeriphCLKConfig+0x9a>
 8001b8c:	2403      	movs	r4, #3
 8001b8e:	4929      	ldr	r1, [pc, #164]	; (8001c34 <HAL_RCCEx_PeriphCLKConfig+0x134>)
 8001b90:	6d4b      	ldr	r3, [r1, #84]	; 0x54
 8001b92:	43a3      	bics	r3, r4
 8001b94:	686c      	ldr	r4, [r5, #4]
 8001b96:	4323      	orrs	r3, r4
 8001b98:	654b      	str	r3, [r1, #84]	; 0x54
 8001b9a:	0693      	lsls	r3, r2, #26
 8001b9c:	d506      	bpl.n	8001bac <HAL_RCCEx_PeriphCLKConfig+0xac>
 8001b9e:	4925      	ldr	r1, [pc, #148]	; (8001c34 <HAL_RCCEx_PeriphCLKConfig+0x134>)
 8001ba0:	4c28      	ldr	r4, [pc, #160]	; (8001c44 <HAL_RCCEx_PeriphCLKConfig+0x144>)
 8001ba2:	6d4b      	ldr	r3, [r1, #84]	; 0x54
 8001ba4:	4023      	ands	r3, r4
 8001ba6:	68ac      	ldr	r4, [r5, #8]
 8001ba8:	4323      	orrs	r3, r4
 8001baa:	654b      	str	r3, [r1, #84]	; 0x54
 8001bac:	0453      	lsls	r3, r2, #17
 8001bae:	d50f      	bpl.n	8001bd0 <HAL_RCCEx_PeriphCLKConfig+0xd0>
 8001bb0:	4920      	ldr	r1, [pc, #128]	; (8001c34 <HAL_RCCEx_PeriphCLKConfig+0x134>)
 8001bb2:	692c      	ldr	r4, [r5, #16]
 8001bb4:	6d4b      	ldr	r3, [r1, #84]	; 0x54
 8001bb6:	009b      	lsls	r3, r3, #2
 8001bb8:	089b      	lsrs	r3, r3, #2
 8001bba:	4323      	orrs	r3, r4
 8001bbc:	654b      	str	r3, [r1, #84]	; 0x54
 8001bbe:	2380      	movs	r3, #128	; 0x80
 8001bc0:	05db      	lsls	r3, r3, #23
 8001bc2:	429c      	cmp	r4, r3
 8001bc4:	d104      	bne.n	8001bd0 <HAL_RCCEx_PeriphCLKConfig+0xd0>
 8001bc6:	2380      	movs	r3, #128	; 0x80
 8001bc8:	68cc      	ldr	r4, [r1, #12]
 8001bca:	025b      	lsls	r3, r3, #9
 8001bcc:	4323      	orrs	r3, r4
 8001bce:	60cb      	str	r3, [r1, #12]
 8001bd0:	0512      	lsls	r2, r2, #20
 8001bd2:	d50f      	bpl.n	8001bf4 <HAL_RCCEx_PeriphCLKConfig+0xf4>
 8001bd4:	4a17      	ldr	r2, [pc, #92]	; (8001c34 <HAL_RCCEx_PeriphCLKConfig+0x134>)
 8001bd6:	4c1c      	ldr	r4, [pc, #112]	; (8001c48 <HAL_RCCEx_PeriphCLKConfig+0x148>)
 8001bd8:	6d53      	ldr	r3, [r2, #84]	; 0x54
 8001bda:	68e9      	ldr	r1, [r5, #12]
 8001bdc:	4023      	ands	r3, r4
 8001bde:	430b      	orrs	r3, r1
 8001be0:	6553      	str	r3, [r2, #84]	; 0x54
 8001be2:	2380      	movs	r3, #128	; 0x80
 8001be4:	01db      	lsls	r3, r3, #7
 8001be6:	4299      	cmp	r1, r3
 8001be8:	d104      	bne.n	8001bf4 <HAL_RCCEx_PeriphCLKConfig+0xf4>
 8001bea:	2380      	movs	r3, #128	; 0x80
 8001bec:	68d1      	ldr	r1, [r2, #12]
 8001bee:	025b      	lsls	r3, r3, #9
 8001bf0:	430b      	orrs	r3, r1
 8001bf2:	60d3      	str	r3, [r2, #12]
 8001bf4:	b005      	add	sp, #20
 8001bf6:	bdf0      	pop	{r4, r5, r6, r7, pc}
 8001bf8:	2280      	movs	r2, #128	; 0x80
 8001bfa:	6de3      	ldr	r3, [r4, #92]	; 0x5c
 8001bfc:	6de0      	ldr	r0, [r4, #92]	; 0x5c
 8001bfe:	0019      	movs	r1, r3
 8001c00:	0252      	lsls	r2, r2, #9
 8001c02:	4302      	orrs	r2, r0
 8001c04:	65e2      	str	r2, [r4, #92]	; 0x5c
 8001c06:	6de2      	ldr	r2, [r4, #92]	; 0x5c
 8001c08:	4810      	ldr	r0, [pc, #64]	; (8001c4c <HAL_RCCEx_PeriphCLKConfig+0x14c>)
 8001c0a:	4031      	ands	r1, r6
 8001c0c:	4002      	ands	r2, r0
 8001c0e:	65e2      	str	r2, [r4, #92]	; 0x5c
 8001c10:	65e1      	str	r1, [r4, #92]	; 0x5c
 8001c12:	07db      	lsls	r3, r3, #31
 8001c14:	d5a2      	bpl.n	8001b5c <HAL_RCCEx_PeriphCLKConfig+0x5c>
 8001c16:	f7fe fff3 	bl	8000c00 <HAL_GetTick>
 8001c1a:	0007      	movs	r7, r0
 8001c1c:	2202      	movs	r2, #2
 8001c1e:	6de3      	ldr	r3, [r4, #92]	; 0x5c
 8001c20:	4213      	tst	r3, r2
 8001c22:	d19b      	bne.n	8001b5c <HAL_RCCEx_PeriphCLKConfig+0x5c>
 8001c24:	f7fe ffec 	bl	8000c00 <HAL_GetTick>
 8001c28:	4b09      	ldr	r3, [pc, #36]	; (8001c50 <HAL_RCCEx_PeriphCLKConfig+0x150>)
 8001c2a:	1bc0      	subs	r0, r0, r7
 8001c2c:	4298      	cmp	r0, r3
 8001c2e:	d9f5      	bls.n	8001c1c <HAL_RCCEx_PeriphCLKConfig+0x11c>
 8001c30:	e7a1      	b.n	8001b76 <HAL_RCCEx_PeriphCLKConfig+0x76>
 8001c32:	46c0      	nop			; (mov r8, r8)
 8001c34:	40021000 	.word	0x40021000
 8001c38:	40007000 	.word	0x40007000
 8001c3c:	fffffcff 	.word	0xfffffcff
 8001c40:	efffffff 	.word	0xefffffff
 8001c44:	ffffcfff 	.word	0xffffcfff
 8001c48:	ffff3fff 	.word	0xffff3fff
 8001c4c:	fffeffff 	.word	0xfffeffff
 8001c50:	00001388 	.word	0x00001388

08001c54 <SPI_WaitFifoStateUntilTimeout.constprop.0>:
 8001c54:	b5f0      	push	{r4, r5, r6, r7, lr}
 8001c56:	0017      	movs	r7, r2
 8001c58:	2200      	movs	r2, #0
 8001c5a:	b085      	sub	sp, #20
 8001c5c:	001d      	movs	r5, r3
 8001c5e:	ab02      	add	r3, sp, #8
 8001c60:	70da      	strb	r2, [r3, #3]
 8001c62:	0004      	movs	r4, r0
 8001c64:	000e      	movs	r6, r1
 8001c66:	f7fe ffcb 	bl	8000c00 <HAL_GetTick>
 8001c6a:	19ed      	adds	r5, r5, r7
 8001c6c:	1a2d      	subs	r5, r5, r0
 8001c6e:	f7fe ffc7 	bl	8000c00 <HAL_GetTick>
 8001c72:	2223      	movs	r2, #35	; 0x23
 8001c74:	6823      	ldr	r3, [r4, #0]
 8001c76:	9000      	str	r0, [sp, #0]
 8001c78:	9301      	str	r3, [sp, #4]
 8001c7a:	4b2a      	ldr	r3, [pc, #168]	; (8001d24 <SPI_WaitFifoStateUntilTimeout.constprop.0+0xd0>)
 8001c7c:	681b      	ldr	r3, [r3, #0]
 8001c7e:	4353      	muls	r3, r2
 8001c80:	0d1b      	lsrs	r3, r3, #20
 8001c82:	436b      	muls	r3, r5
 8001c84:	9303      	str	r3, [sp, #12]
 8001c86:	6821      	ldr	r1, [r4, #0]
 8001c88:	ab02      	add	r3, sp, #8
 8001c8a:	1cda      	adds	r2, r3, #3
 8001c8c:	688b      	ldr	r3, [r1, #8]
 8001c8e:	0018      	movs	r0, r3
 8001c90:	4030      	ands	r0, r6
 8001c92:	4233      	tst	r3, r6
 8001c94:	d03b      	beq.n	8001d0e <SPI_WaitFifoStateUntilTimeout.constprop.0+0xba>
 8001c96:	23c0      	movs	r3, #192	; 0xc0
 8001c98:	00db      	lsls	r3, r3, #3
 8001c9a:	429e      	cmp	r6, r3
 8001c9c:	d104      	bne.n	8001ca8 <SPI_WaitFifoStateUntilTimeout.constprop.0+0x54>
 8001c9e:	9b01      	ldr	r3, [sp, #4]
 8001ca0:	7b1b      	ldrb	r3, [r3, #12]
 8001ca2:	b2db      	uxtb	r3, r3
 8001ca4:	7013      	strb	r3, [r2, #0]
 8001ca6:	7813      	ldrb	r3, [r2, #0]
 8001ca8:	1c7b      	adds	r3, r7, #1
 8001caa:	d0ef      	beq.n	8001c8c <SPI_WaitFifoStateUntilTimeout.constprop.0+0x38>
 8001cac:	f7fe ffa8 	bl	8000c00 <HAL_GetTick>
 8001cb0:	9b00      	ldr	r3, [sp, #0]
 8001cb2:	1ac0      	subs	r0, r0, r3
 8001cb4:	42a8      	cmp	r0, r5
 8001cb6:	d32c      	bcc.n	8001d12 <SPI_WaitFifoStateUntilTimeout.constprop.0+0xbe>
 8001cb8:	21e0      	movs	r1, #224	; 0xe0
 8001cba:	6823      	ldr	r3, [r4, #0]
 8001cbc:	685a      	ldr	r2, [r3, #4]
 8001cbe:	438a      	bics	r2, r1
 8001cc0:	605a      	str	r2, [r3, #4]
 8001cc2:	2282      	movs	r2, #130	; 0x82
 8001cc4:	6861      	ldr	r1, [r4, #4]
 8001cc6:	0052      	lsls	r2, r2, #1
 8001cc8:	4291      	cmp	r1, r2
 8001cca:	d10c      	bne.n	8001ce6 <SPI_WaitFifoStateUntilTimeout.constprop.0+0x92>
 8001ccc:	2180      	movs	r1, #128	; 0x80
 8001cce:	68a2      	ldr	r2, [r4, #8]
 8001cd0:	0209      	lsls	r1, r1, #8
 8001cd2:	428a      	cmp	r2, r1
 8001cd4:	d003      	beq.n	8001cde <SPI_WaitFifoStateUntilTimeout.constprop.0+0x8a>
 8001cd6:	2180      	movs	r1, #128	; 0x80
 8001cd8:	00c9      	lsls	r1, r1, #3
 8001cda:	428a      	cmp	r2, r1
 8001cdc:	d103      	bne.n	8001ce6 <SPI_WaitFifoStateUntilTimeout.constprop.0+0x92>
 8001cde:	2140      	movs	r1, #64	; 0x40
 8001ce0:	681a      	ldr	r2, [r3, #0]
 8001ce2:	438a      	bics	r2, r1
 8001ce4:	601a      	str	r2, [r3, #0]
 8001ce6:	2180      	movs	r1, #128	; 0x80
 8001ce8:	6aa2      	ldr	r2, [r4, #40]	; 0x28
 8001cea:	0189      	lsls	r1, r1, #6
 8001cec:	428a      	cmp	r2, r1
 8001cee:	d106      	bne.n	8001cfe <SPI_WaitFifoStateUntilTimeout.constprop.0+0xaa>
 8001cf0:	6819      	ldr	r1, [r3, #0]
 8001cf2:	480d      	ldr	r0, [pc, #52]	; (8001d28 <SPI_WaitFifoStateUntilTimeout.constprop.0+0xd4>)
 8001cf4:	4001      	ands	r1, r0
 8001cf6:	6019      	str	r1, [r3, #0]
 8001cf8:	6819      	ldr	r1, [r3, #0]
 8001cfa:	430a      	orrs	r2, r1
 8001cfc:	601a      	str	r2, [r3, #0]
 8001cfe:	0023      	movs	r3, r4
 8001d00:	2201      	movs	r2, #1
 8001d02:	335d      	adds	r3, #93	; 0x5d
 8001d04:	701a      	strb	r2, [r3, #0]
 8001d06:	2300      	movs	r3, #0
 8001d08:	2003      	movs	r0, #3
 8001d0a:	345c      	adds	r4, #92	; 0x5c
 8001d0c:	7023      	strb	r3, [r4, #0]
 8001d0e:	b005      	add	sp, #20
 8001d10:	bdf0      	pop	{r4, r5, r6, r7, pc}
 8001d12:	9b03      	ldr	r3, [sp, #12]
 8001d14:	1e5a      	subs	r2, r3, #1
 8001d16:	4193      	sbcs	r3, r2
 8001d18:	425b      	negs	r3, r3
 8001d1a:	401d      	ands	r5, r3
 8001d1c:	9b03      	ldr	r3, [sp, #12]
 8001d1e:	3b01      	subs	r3, #1
 8001d20:	e7b0      	b.n	8001c84 <SPI_WaitFifoStateUntilTimeout.constprop.0+0x30>
 8001d22:	46c0      	nop			; (mov r8, r8)
 8001d24:	20000000 	.word	0x20000000
 8001d28:	ffffdfff 	.word	0xffffdfff

08001d2c <SPI_WaitFlagStateUntilTimeout.constprop.0>:
 8001d2c:	b5f0      	push	{r4, r5, r6, r7, lr}
 8001d2e:	000e      	movs	r6, r1
 8001d30:	b085      	sub	sp, #20
 8001d32:	0015      	movs	r5, r2
 8001d34:	0004      	movs	r4, r0
 8001d36:	f7fe ff63 	bl	8000c00 <HAL_GetTick>
 8001d3a:	19ad      	adds	r5, r5, r6
 8001d3c:	1a2d      	subs	r5, r5, r0
 8001d3e:	f7fe ff5f 	bl	8000c00 <HAL_GetTick>
 8001d42:	2780      	movs	r7, #128	; 0x80
 8001d44:	4b25      	ldr	r3, [pc, #148]	; (8001ddc <SPI_WaitFlagStateUntilTimeout.constprop.0+0xb0>)
 8001d46:	9001      	str	r0, [sp, #4]
 8001d48:	681b      	ldr	r3, [r3, #0]
 8001d4a:	015b      	lsls	r3, r3, #5
 8001d4c:	0d1b      	lsrs	r3, r3, #20
 8001d4e:	436b      	muls	r3, r5
 8001d50:	9303      	str	r3, [sp, #12]
 8001d52:	6822      	ldr	r2, [r4, #0]
 8001d54:	6893      	ldr	r3, [r2, #8]
 8001d56:	0018      	movs	r0, r3
 8001d58:	4038      	ands	r0, r7
 8001d5a:	423b      	tst	r3, r7
 8001d5c:	d032      	beq.n	8001dc4 <SPI_WaitFlagStateUntilTimeout.constprop.0+0x98>
 8001d5e:	1c73      	adds	r3, r6, #1
 8001d60:	d0f8      	beq.n	8001d54 <SPI_WaitFlagStateUntilTimeout.constprop.0+0x28>
 8001d62:	f7fe ff4d 	bl	8000c00 <HAL_GetTick>
 8001d66:	9b01      	ldr	r3, [sp, #4]
 8001d68:	1ac0      	subs	r0, r0, r3
 8001d6a:	42a8      	cmp	r0, r5
 8001d6c:	d32c      	bcc.n	8001dc8 <SPI_WaitFlagStateUntilTimeout.constprop.0+0x9c>
 8001d6e:	21e0      	movs	r1, #224	; 0xe0
 8001d70:	6823      	ldr	r3, [r4, #0]
 8001d72:	685a      	ldr	r2, [r3, #4]
 8001d74:	438a      	bics	r2, r1
 8001d76:	605a      	str	r2, [r3, #4]
 8001d78:	2282      	movs	r2, #130	; 0x82
 8001d7a:	6861      	ldr	r1, [r4, #4]
 8001d7c:	0052      	lsls	r2, r2, #1
 8001d7e:	4291      	cmp	r1, r2
 8001d80:	d10c      	bne.n	8001d9c <SPI_WaitFlagStateUntilTimeout.constprop.0+0x70>
 8001d82:	2180      	movs	r1, #128	; 0x80
 8001d84:	68a2      	ldr	r2, [r4, #8]
 8001d86:	0209      	lsls	r1, r1, #8
 8001d88:	428a      	cmp	r2, r1
 8001d8a:	d003      	beq.n	8001d94 <SPI_WaitFlagStateUntilTimeout.constprop.0+0x68>
 8001d8c:	2180      	movs	r1, #128	; 0x80
 8001d8e:	00c9      	lsls	r1, r1, #3
 8001d90:	428a      	cmp	r2, r1
 8001d92:	d103      	bne.n	8001d9c <SPI_WaitFlagStateUntilTimeout.constprop.0+0x70>
 8001d94:	2140      	movs	r1, #64	; 0x40
 8001d96:	681a      	ldr	r2, [r3, #0]
 8001d98:	438a      	bics	r2, r1
 8001d9a:	601a      	str	r2, [r3, #0]
 8001d9c:	2180      	movs	r1, #128	; 0x80
 8001d9e:	6aa2      	ldr	r2, [r4, #40]	; 0x28
 8001da0:	0189      	lsls	r1, r1, #6
 8001da2:	428a      	cmp	r2, r1
 8001da4:	d106      	bne.n	8001db4 <SPI_WaitFlagStateUntilTimeout.constprop.0+0x88>
 8001da6:	6819      	ldr	r1, [r3, #0]
 8001da8:	480d      	ldr	r0, [pc, #52]	; (8001de0 <SPI_WaitFlagStateUntilTimeout.constprop.0+0xb4>)
 8001daa:	4001      	ands	r1, r0
 8001dac:	6019      	str	r1, [r3, #0]
 8001dae:	6819      	ldr	r1, [r3, #0]
 8001db0:	430a      	orrs	r2, r1
 8001db2:	601a      	str	r2, [r3, #0]
 8001db4:	0023      	movs	r3, r4
 8001db6:	2201      	movs	r2, #1
 8001db8:	335d      	adds	r3, #93	; 0x5d
 8001dba:	701a      	strb	r2, [r3, #0]
 8001dbc:	2300      	movs	r3, #0
 8001dbe:	2003      	movs	r0, #3
 8001dc0:	345c      	adds	r4, #92	; 0x5c
 8001dc2:	7023      	strb	r3, [r4, #0]
 8001dc4:	b005      	add	sp, #20
 8001dc6:	bdf0      	pop	{r4, r5, r6, r7, pc}
 8001dc8:	9b03      	ldr	r3, [sp, #12]
 8001dca:	1e5a      	subs	r2, r3, #1
 8001dcc:	4193      	sbcs	r3, r2
 8001dce:	425b      	negs	r3, r3
 8001dd0:	401d      	ands	r5, r3
 8001dd2:	9b03      	ldr	r3, [sp, #12]
 8001dd4:	3b01      	subs	r3, #1
 8001dd6:	9303      	str	r3, [sp, #12]
 8001dd8:	e7bb      	b.n	8001d52 <SPI_WaitFlagStateUntilTimeout.constprop.0+0x26>
 8001dda:	46c0      	nop			; (mov r8, r8)
 8001ddc:	20000000 	.word	0x20000000
 8001de0:	ffffdfff 	.word	0xffffdfff

08001de4 <SPI_EndRxTransaction>:
 8001de4:	b5f8      	push	{r3, r4, r5, r6, r7, lr}
 8001de6:	2382      	movs	r3, #130	; 0x82
 8001de8:	0017      	movs	r7, r2
 8001dea:	6842      	ldr	r2, [r0, #4]
 8001dec:	0004      	movs	r4, r0
 8001dee:	000e      	movs	r6, r1
 8001df0:	005b      	lsls	r3, r3, #1
 8001df2:	429a      	cmp	r2, r3
 8001df4:	d10d      	bne.n	8001e12 <SPI_EndRxTransaction+0x2e>
 8001df6:	2280      	movs	r2, #128	; 0x80
 8001df8:	6883      	ldr	r3, [r0, #8]
 8001dfa:	0212      	lsls	r2, r2, #8
 8001dfc:	4293      	cmp	r3, r2
 8001dfe:	d003      	beq.n	8001e08 <SPI_EndRxTransaction+0x24>
 8001e00:	2280      	movs	r2, #128	; 0x80
 8001e02:	00d2      	lsls	r2, r2, #3
 8001e04:	4293      	cmp	r3, r2
 8001e06:	d104      	bne.n	8001e12 <SPI_EndRxTransaction+0x2e>
 8001e08:	2140      	movs	r1, #64	; 0x40
 8001e0a:	6822      	ldr	r2, [r4, #0]
 8001e0c:	6813      	ldr	r3, [r2, #0]
 8001e0e:	438b      	bics	r3, r1
 8001e10:	6013      	str	r3, [r2, #0]
 8001e12:	003a      	movs	r2, r7
 8001e14:	0031      	movs	r1, r6
 8001e16:	0020      	movs	r0, r4
 8001e18:	f7ff ff88 	bl	8001d2c <SPI_WaitFlagStateUntilTimeout.constprop.0>
 8001e1c:	1e05      	subs	r5, r0, #0
 8001e1e:	d005      	beq.n	8001e2c <SPI_EndRxTransaction+0x48>
 8001e20:	2320      	movs	r3, #32
 8001e22:	6e22      	ldr	r2, [r4, #96]	; 0x60
 8001e24:	2503      	movs	r5, #3
 8001e26:	4313      	orrs	r3, r2
 8001e28:	6623      	str	r3, [r4, #96]	; 0x60
 8001e2a:	e016      	b.n	8001e5a <SPI_EndRxTransaction+0x76>
 8001e2c:	2382      	movs	r3, #130	; 0x82
 8001e2e:	6862      	ldr	r2, [r4, #4]
 8001e30:	005b      	lsls	r3, r3, #1
 8001e32:	429a      	cmp	r2, r3
 8001e34:	d111      	bne.n	8001e5a <SPI_EndRxTransaction+0x76>
 8001e36:	2280      	movs	r2, #128	; 0x80
 8001e38:	68a3      	ldr	r3, [r4, #8]
 8001e3a:	0212      	lsls	r2, r2, #8
 8001e3c:	4293      	cmp	r3, r2
 8001e3e:	d003      	beq.n	8001e48 <SPI_EndRxTransaction+0x64>
 8001e40:	2280      	movs	r2, #128	; 0x80
 8001e42:	00d2      	lsls	r2, r2, #3
 8001e44:	4293      	cmp	r3, r2
 8001e46:	d108      	bne.n	8001e5a <SPI_EndRxTransaction+0x76>
 8001e48:	21c0      	movs	r1, #192	; 0xc0
 8001e4a:	003b      	movs	r3, r7
 8001e4c:	0032      	movs	r2, r6
 8001e4e:	0020      	movs	r0, r4
 8001e50:	00c9      	lsls	r1, r1, #3
 8001e52:	f7ff feff 	bl	8001c54 <SPI_WaitFifoStateUntilTimeout.constprop.0>
 8001e56:	2800      	cmp	r0, #0
 8001e58:	d1e2      	bne.n	8001e20 <SPI_EndRxTransaction+0x3c>
 8001e5a:	0028      	movs	r0, r5
 8001e5c:	bdf8      	pop	{r3, r4, r5, r6, r7, pc}

08001e5e <SPI_EndRxTxTransaction>:
 8001e5e:	b570      	push	{r4, r5, r6, lr}
 8001e60:	0013      	movs	r3, r2
 8001e62:	000d      	movs	r5, r1
 8001e64:	0016      	movs	r6, r2
 8001e66:	000a      	movs	r2, r1
 8001e68:	21c0      	movs	r1, #192	; 0xc0
 8001e6a:	0149      	lsls	r1, r1, #5
 8001e6c:	0004      	movs	r4, r0
 8001e6e:	f7ff fef1 	bl	8001c54 <SPI_WaitFifoStateUntilTimeout.constprop.0>
 8001e72:	2800      	cmp	r0, #0
 8001e74:	d005      	beq.n	8001e82 <SPI_EndRxTxTransaction+0x24>
 8001e76:	2320      	movs	r3, #32
 8001e78:	6e22      	ldr	r2, [r4, #96]	; 0x60
 8001e7a:	2003      	movs	r0, #3
 8001e7c:	4313      	orrs	r3, r2
 8001e7e:	6623      	str	r3, [r4, #96]	; 0x60
 8001e80:	e00f      	b.n	8001ea2 <SPI_EndRxTxTransaction+0x44>
 8001e82:	0032      	movs	r2, r6
 8001e84:	0029      	movs	r1, r5
 8001e86:	0020      	movs	r0, r4
 8001e88:	f7ff ff50 	bl	8001d2c <SPI_WaitFlagStateUntilTimeout.constprop.0>
 8001e8c:	2800      	cmp	r0, #0
 8001e8e:	d1f2      	bne.n	8001e76 <SPI_EndRxTxTransaction+0x18>
 8001e90:	21c0      	movs	r1, #192	; 0xc0
 8001e92:	0033      	movs	r3, r6
 8001e94:	002a      	movs	r2, r5
 8001e96:	0020      	movs	r0, r4
 8001e98:	00c9      	lsls	r1, r1, #3
 8001e9a:	f7ff fedb 	bl	8001c54 <SPI_WaitFifoStateUntilTimeout.constprop.0>
 8001e9e:	2800      	cmp	r0, #0
 8001ea0:	d1e9      	bne.n	8001e76 <SPI_EndRxTxTransaction+0x18>
 8001ea2:	bd70      	pop	{r4, r5, r6, pc}

08001ea4 <HAL_SPI_Init>:
 8001ea4:	b5f8      	push	{r3, r4, r5, r6, r7, lr}
 8001ea6:	0004      	movs	r4, r0
 8001ea8:	2001      	movs	r0, #1
 8001eaa:	2c00      	cmp	r4, #0
 8001eac:	d066      	beq.n	8001f7c <HAL_SPI_Init+0xd8>
 8001eae:	6a63      	ldr	r3, [r4, #36]	; 0x24
 8001eb0:	2b00      	cmp	r3, #0
 8001eb2:	d164      	bne.n	8001f7e <HAL_SPI_Init+0xda>
 8001eb4:	2282      	movs	r2, #130	; 0x82
 8001eb6:	6861      	ldr	r1, [r4, #4]
 8001eb8:	0052      	lsls	r2, r2, #1
 8001eba:	4291      	cmp	r1, r2
 8001ebc:	d000      	beq.n	8001ec0 <HAL_SPI_Init+0x1c>
 8001ebe:	61e3      	str	r3, [r4, #28]
 8001ec0:	2300      	movs	r3, #0
 8001ec2:	0025      	movs	r5, r4
 8001ec4:	62a3      	str	r3, [r4, #40]	; 0x28
 8001ec6:	355d      	adds	r5, #93	; 0x5d
 8001ec8:	782b      	ldrb	r3, [r5, #0]
 8001eca:	b2da      	uxtb	r2, r3
 8001ecc:	2b00      	cmp	r3, #0
 8001ece:	d105      	bne.n	8001edc <HAL_SPI_Init+0x38>
 8001ed0:	0023      	movs	r3, r4
 8001ed2:	335c      	adds	r3, #92	; 0x5c
 8001ed4:	0020      	movs	r0, r4
 8001ed6:	701a      	strb	r2, [r3, #0]
 8001ed8:	f7fe fc9c 	bl	8000814 <HAL_SPI_MspInit>
 8001edc:	2302      	movs	r3, #2
 8001ede:	2140      	movs	r1, #64	; 0x40
 8001ee0:	702b      	strb	r3, [r5, #0]
 8001ee2:	6822      	ldr	r2, [r4, #0]
 8001ee4:	68e6      	ldr	r6, [r4, #12]
 8001ee6:	6813      	ldr	r3, [r2, #0]
 8001ee8:	438b      	bics	r3, r1
 8001eea:	21e0      	movs	r1, #224	; 0xe0
 8001eec:	6013      	str	r3, [r2, #0]
 8001eee:	00c9      	lsls	r1, r1, #3
 8001ef0:	2300      	movs	r3, #0
 8001ef2:	428e      	cmp	r6, r1
 8001ef4:	d847      	bhi.n	8001f86 <HAL_SPI_Init+0xe2>
 8001ef6:	2080      	movs	r0, #128	; 0x80
 8001ef8:	0140      	lsls	r0, r0, #5
 8001efa:	428e      	cmp	r6, r1
 8001efc:	d000      	beq.n	8001f00 <HAL_SPI_Init+0x5c>
 8001efe:	62a3      	str	r3, [r4, #40]	; 0x28
 8001f00:	2182      	movs	r1, #130	; 0x82
 8001f02:	2784      	movs	r7, #132	; 0x84
 8001f04:	6863      	ldr	r3, [r4, #4]
 8001f06:	0049      	lsls	r1, r1, #1
 8001f08:	400b      	ands	r3, r1
 8001f0a:	68a1      	ldr	r1, [r4, #8]
 8001f0c:	023f      	lsls	r7, r7, #8
 8001f0e:	4039      	ands	r1, r7
 8001f10:	2702      	movs	r7, #2
 8001f12:	430b      	orrs	r3, r1
 8001f14:	6921      	ldr	r1, [r4, #16]
 8001f16:	69a5      	ldr	r5, [r4, #24]
 8001f18:	4039      	ands	r1, r7
 8001f1a:	430b      	orrs	r3, r1
 8001f1c:	2101      	movs	r1, #1
 8001f1e:	6967      	ldr	r7, [r4, #20]
 8001f20:	400f      	ands	r7, r1
 8001f22:	433b      	orrs	r3, r7
 8001f24:	2780      	movs	r7, #128	; 0x80
 8001f26:	00bf      	lsls	r7, r7, #2
 8001f28:	402f      	ands	r7, r5
 8001f2a:	433b      	orrs	r3, r7
 8001f2c:	69e7      	ldr	r7, [r4, #28]
 8001f2e:	3137      	adds	r1, #55	; 0x37
 8001f30:	400f      	ands	r7, r1
 8001f32:	433b      	orrs	r3, r7
 8001f34:	6a27      	ldr	r7, [r4, #32]
 8001f36:	3148      	adds	r1, #72	; 0x48
 8001f38:	400f      	ands	r7, r1
 8001f3a:	2180      	movs	r1, #128	; 0x80
 8001f3c:	433b      	orrs	r3, r7
 8001f3e:	6aa7      	ldr	r7, [r4, #40]	; 0x28
 8001f40:	0189      	lsls	r1, r1, #6
 8001f42:	400f      	ands	r7, r1
 8001f44:	433b      	orrs	r3, r7
 8001f46:	2710      	movs	r7, #16
 8001f48:	2108      	movs	r1, #8
 8001f4a:	6013      	str	r3, [r2, #0]
 8001f4c:	6a63      	ldr	r3, [r4, #36]	; 0x24
 8001f4e:	0c2d      	lsrs	r5, r5, #16
 8001f50:	403b      	ands	r3, r7
 8001f52:	6b67      	ldr	r7, [r4, #52]	; 0x34
 8001f54:	400f      	ands	r7, r1
 8001f56:	433b      	orrs	r3, r7
 8001f58:	27f0      	movs	r7, #240	; 0xf0
 8001f5a:	013f      	lsls	r7, r7, #4
 8001f5c:	403e      	ands	r6, r7
 8001f5e:	4333      	orrs	r3, r6
 8001f60:	2604      	movs	r6, #4
 8001f62:	4035      	ands	r5, r6
 8001f64:	432b      	orrs	r3, r5
 8001f66:	4303      	orrs	r3, r0
 8001f68:	6053      	str	r3, [r2, #4]
 8001f6a:	69d3      	ldr	r3, [r2, #28]
 8001f6c:	4808      	ldr	r0, [pc, #32]	; (8001f90 <HAL_SPI_Init+0xec>)
 8001f6e:	4003      	ands	r3, r0
 8001f70:	2000      	movs	r0, #0
 8001f72:	61d3      	str	r3, [r2, #28]
 8001f74:	2301      	movs	r3, #1
 8001f76:	6620      	str	r0, [r4, #96]	; 0x60
 8001f78:	345d      	adds	r4, #93	; 0x5d
 8001f7a:	7023      	strb	r3, [r4, #0]
 8001f7c:	bdf8      	pop	{r3, r4, r5, r6, r7, pc}
 8001f7e:	2300      	movs	r3, #0
 8001f80:	6123      	str	r3, [r4, #16]
 8001f82:	6163      	str	r3, [r4, #20]
 8001f84:	e79c      	b.n	8001ec0 <HAL_SPI_Init+0x1c>
 8001f86:	21f0      	movs	r1, #240	; 0xf0
 8001f88:	0018      	movs	r0, r3
 8001f8a:	0109      	lsls	r1, r1, #4
 8001f8c:	e7b5      	b.n	8001efa <HAL_SPI_Init+0x56>
 8001f8e:	46c0      	nop			; (mov r8, r8)
 8001f90:	fffff7ff 	.word	0xfffff7ff

08001f94 <HAL_SPI_Transmit>:
 8001f94:	b5f0      	push	{r4, r5, r6, r7, lr}
 8001f96:	001d      	movs	r5, r3
 8001f98:	0003      	movs	r3, r0
 8001f9a:	b085      	sub	sp, #20
 8001f9c:	9100      	str	r1, [sp, #0]
 8001f9e:	335c      	adds	r3, #92	; 0x5c
 8001fa0:	0016      	movs	r6, r2
 8001fa2:	781a      	ldrb	r2, [r3, #0]
 8001fa4:	0004      	movs	r4, r0
 8001fa6:	2702      	movs	r7, #2
 8001fa8:	2a01      	cmp	r2, #1
 8001faa:	d100      	bne.n	8001fae <HAL_SPI_Transmit+0x1a>
 8001fac:	e085      	b.n	80020ba <HAL_SPI_Transmit+0x126>
 8001fae:	2201      	movs	r2, #1
 8001fb0:	701a      	strb	r2, [r3, #0]
 8001fb2:	f7fe fe25 	bl	8000c00 <HAL_GetTick>
 8001fb6:	0023      	movs	r3, r4
 8001fb8:	9001      	str	r0, [sp, #4]
 8001fba:	335d      	adds	r3, #93	; 0x5d
 8001fbc:	781a      	ldrb	r2, [r3, #0]
 8001fbe:	b2d7      	uxtb	r7, r2
 8001fc0:	2a01      	cmp	r2, #1
 8001fc2:	d000      	beq.n	8001fc6 <HAL_SPI_Transmit+0x32>
 8001fc4:	e0a9      	b.n	800211a <HAL_SPI_Transmit+0x186>
 8001fc6:	9a00      	ldr	r2, [sp, #0]
 8001fc8:	2a00      	cmp	r2, #0
 8001fca:	d073      	beq.n	80020b4 <HAL_SPI_Transmit+0x120>
 8001fcc:	2e00      	cmp	r6, #0
 8001fce:	d071      	beq.n	80020b4 <HAL_SPI_Transmit+0x120>
 8001fd0:	2203      	movs	r2, #3
 8001fd2:	701a      	strb	r2, [r3, #0]
 8001fd4:	2300      	movs	r3, #0
 8001fd6:	9a00      	ldr	r2, [sp, #0]
 8001fd8:	6623      	str	r3, [r4, #96]	; 0x60
 8001fda:	63a2      	str	r2, [r4, #56]	; 0x38
 8001fdc:	1da2      	adds	r2, r4, #6
 8001fde:	6423      	str	r3, [r4, #64]	; 0x40
 8001fe0:	87a6      	strh	r6, [r4, #60]	; 0x3c
 8001fe2:	87e6      	strh	r6, [r4, #62]	; 0x3e
 8001fe4:	3202      	adds	r2, #2
 8001fe6:	8793      	strh	r3, [r2, #60]	; 0x3c
 8001fe8:	87d3      	strh	r3, [r2, #62]	; 0x3e
 8001fea:	2280      	movs	r2, #128	; 0x80
 8001fec:	68a1      	ldr	r1, [r4, #8]
 8001fee:	6523      	str	r3, [r4, #80]	; 0x50
 8001ff0:	64e3      	str	r3, [r4, #76]	; 0x4c
 8001ff2:	0212      	lsls	r2, r2, #8
 8001ff4:	6823      	ldr	r3, [r4, #0]
 8001ff6:	4291      	cmp	r1, r2
 8001ff8:	d108      	bne.n	800200c <HAL_SPI_Transmit+0x78>
 8001ffa:	2140      	movs	r1, #64	; 0x40
 8001ffc:	681a      	ldr	r2, [r3, #0]
 8001ffe:	438a      	bics	r2, r1
 8002000:	601a      	str	r2, [r3, #0]
 8002002:	2280      	movs	r2, #128	; 0x80
 8002004:	6819      	ldr	r1, [r3, #0]
 8002006:	01d2      	lsls	r2, r2, #7
 8002008:	430a      	orrs	r2, r1
 800200a:	601a      	str	r2, [r3, #0]
 800200c:	2240      	movs	r2, #64	; 0x40
 800200e:	6819      	ldr	r1, [r3, #0]
 8002010:	4211      	tst	r1, r2
 8002012:	d102      	bne.n	800201a <HAL_SPI_Transmit+0x86>
 8002014:	6819      	ldr	r1, [r3, #0]
 8002016:	430a      	orrs	r2, r1
 8002018:	601a      	str	r2, [r3, #0]
 800201a:	21e0      	movs	r1, #224	; 0xe0
 800201c:	68e0      	ldr	r0, [r4, #12]
 800201e:	6862      	ldr	r2, [r4, #4]
 8002020:	00c9      	lsls	r1, r1, #3
 8002022:	4288      	cmp	r0, r1
 8002024:	d94c      	bls.n	80020c0 <HAL_SPI_Transmit+0x12c>
 8002026:	2a00      	cmp	r2, #0
 8002028:	d001      	beq.n	800202e <HAL_SPI_Transmit+0x9a>
 800202a:	2e01      	cmp	r6, #1
 800202c:	d109      	bne.n	8002042 <HAL_SPI_Transmit+0xae>
 800202e:	9a00      	ldr	r2, [sp, #0]
 8002030:	8812      	ldrh	r2, [r2, #0]
 8002032:	60da      	str	r2, [r3, #12]
 8002034:	9b00      	ldr	r3, [sp, #0]
 8002036:	3302      	adds	r3, #2
 8002038:	63a3      	str	r3, [r4, #56]	; 0x38
 800203a:	8fe3      	ldrh	r3, [r4, #62]	; 0x3e
 800203c:	3b01      	subs	r3, #1
 800203e:	b29b      	uxth	r3, r3
 8002040:	87e3      	strh	r3, [r4, #62]	; 0x3e
 8002042:	2602      	movs	r6, #2
 8002044:	8fe3      	ldrh	r3, [r4, #62]	; 0x3e
 8002046:	2b00      	cmp	r3, #0
 8002048:	d119      	bne.n	800207e <HAL_SPI_Transmit+0xea>
 800204a:	0029      	movs	r1, r5
 800204c:	0020      	movs	r0, r4
 800204e:	9a01      	ldr	r2, [sp, #4]
 8002050:	f7ff ff05 	bl	8001e5e <SPI_EndRxTxTransaction>
 8002054:	2800      	cmp	r0, #0
 8002056:	d15d      	bne.n	8002114 <HAL_SPI_Transmit+0x180>
 8002058:	68a3      	ldr	r3, [r4, #8]
 800205a:	2b00      	cmp	r3, #0
 800205c:	d106      	bne.n	800206c <HAL_SPI_Transmit+0xd8>
 800205e:	9303      	str	r3, [sp, #12]
 8002060:	6823      	ldr	r3, [r4, #0]
 8002062:	68da      	ldr	r2, [r3, #12]
 8002064:	9203      	str	r2, [sp, #12]
 8002066:	689b      	ldr	r3, [r3, #8]
 8002068:	9303      	str	r3, [sp, #12]
 800206a:	9b03      	ldr	r3, [sp, #12]
 800206c:	6e22      	ldr	r2, [r4, #96]	; 0x60
 800206e:	2a00      	cmp	r2, #0
 8002070:	d120      	bne.n	80020b4 <HAL_SPI_Transmit+0x120>
 8002072:	0023      	movs	r3, r4
 8002074:	2101      	movs	r1, #1
 8002076:	335d      	adds	r3, #93	; 0x5d
 8002078:	0017      	movs	r7, r2
 800207a:	7019      	strb	r1, [r3, #0]
 800207c:	e01a      	b.n	80020b4 <HAL_SPI_Transmit+0x120>
 800207e:	6822      	ldr	r2, [r4, #0]
 8002080:	6893      	ldr	r3, [r2, #8]
 8002082:	4233      	tst	r3, r6
 8002084:	d009      	beq.n	800209a <HAL_SPI_Transmit+0x106>
 8002086:	6ba3      	ldr	r3, [r4, #56]	; 0x38
 8002088:	8819      	ldrh	r1, [r3, #0]
 800208a:	3302      	adds	r3, #2
 800208c:	60d1      	str	r1, [r2, #12]
 800208e:	63a3      	str	r3, [r4, #56]	; 0x38
 8002090:	8fe3      	ldrh	r3, [r4, #62]	; 0x3e
 8002092:	3b01      	subs	r3, #1
 8002094:	b29b      	uxth	r3, r3
 8002096:	87e3      	strh	r3, [r4, #62]	; 0x3e
 8002098:	e7d4      	b.n	8002044 <HAL_SPI_Transmit+0xb0>
 800209a:	f7fe fdb1 	bl	8000c00 <HAL_GetTick>
 800209e:	9b01      	ldr	r3, [sp, #4]
 80020a0:	1ac0      	subs	r0, r0, r3
 80020a2:	42a8      	cmp	r0, r5
 80020a4:	d3ce      	bcc.n	8002044 <HAL_SPI_Transmit+0xb0>
 80020a6:	1c6b      	adds	r3, r5, #1
 80020a8:	d0cc      	beq.n	8002044 <HAL_SPI_Transmit+0xb0>
 80020aa:	0023      	movs	r3, r4
 80020ac:	2201      	movs	r2, #1
 80020ae:	2703      	movs	r7, #3
 80020b0:	335d      	adds	r3, #93	; 0x5d
 80020b2:	701a      	strb	r2, [r3, #0]
 80020b4:	2300      	movs	r3, #0
 80020b6:	345c      	adds	r4, #92	; 0x5c
 80020b8:	7023      	strb	r3, [r4, #0]
 80020ba:	0038      	movs	r0, r7
 80020bc:	b005      	add	sp, #20
 80020be:	bdf0      	pop	{r4, r5, r6, r7, pc}
 80020c0:	2a00      	cmp	r2, #0
 80020c2:	d001      	beq.n	80020c8 <HAL_SPI_Transmit+0x134>
 80020c4:	2e01      	cmp	r6, #1
 80020c6:	d109      	bne.n	80020dc <HAL_SPI_Transmit+0x148>
 80020c8:	9a00      	ldr	r2, [sp, #0]
 80020ca:	7812      	ldrb	r2, [r2, #0]
 80020cc:	731a      	strb	r2, [r3, #12]
 80020ce:	6ba3      	ldr	r3, [r4, #56]	; 0x38
 80020d0:	3301      	adds	r3, #1
 80020d2:	63a3      	str	r3, [r4, #56]	; 0x38
 80020d4:	8fe3      	ldrh	r3, [r4, #62]	; 0x3e
 80020d6:	3b01      	subs	r3, #1
 80020d8:	b29b      	uxth	r3, r3
 80020da:	87e3      	strh	r3, [r4, #62]	; 0x3e
 80020dc:	2602      	movs	r6, #2
 80020de:	8fe3      	ldrh	r3, [r4, #62]	; 0x3e
 80020e0:	2b00      	cmp	r3, #0
 80020e2:	d0b2      	beq.n	800204a <HAL_SPI_Transmit+0xb6>
 80020e4:	6823      	ldr	r3, [r4, #0]
 80020e6:	689a      	ldr	r2, [r3, #8]
 80020e8:	4232      	tst	r2, r6
 80020ea:	d00a      	beq.n	8002102 <HAL_SPI_Transmit+0x16e>
 80020ec:	6ba2      	ldr	r2, [r4, #56]	; 0x38
 80020ee:	7812      	ldrb	r2, [r2, #0]
 80020f0:	731a      	strb	r2, [r3, #12]
 80020f2:	6ba3      	ldr	r3, [r4, #56]	; 0x38
 80020f4:	3301      	adds	r3, #1
 80020f6:	63a3      	str	r3, [r4, #56]	; 0x38
 80020f8:	8fe3      	ldrh	r3, [r4, #62]	; 0x3e
 80020fa:	3b01      	subs	r3, #1
 80020fc:	b29b      	uxth	r3, r3
 80020fe:	87e3      	strh	r3, [r4, #62]	; 0x3e
 8002100:	e7ed      	b.n	80020de <HAL_SPI_Transmit+0x14a>
 8002102:	f7fe fd7d 	bl	8000c00 <HAL_GetTick>
 8002106:	9b01      	ldr	r3, [sp, #4]
 8002108:	1ac0      	subs	r0, r0, r3
 800210a:	42a8      	cmp	r0, r5
 800210c:	d3e7      	bcc.n	80020de <HAL_SPI_Transmit+0x14a>
 800210e:	1c6b      	adds	r3, r5, #1
 8002110:	d0e5      	beq.n	80020de <HAL_SPI_Transmit+0x14a>
 8002112:	e7ca      	b.n	80020aa <HAL_SPI_Transmit+0x116>
 8002114:	2320      	movs	r3, #32
 8002116:	6623      	str	r3, [r4, #96]	; 0x60
 8002118:	e79e      	b.n	8002058 <HAL_SPI_Transmit+0xc4>
 800211a:	2702      	movs	r7, #2
 800211c:	e7ca      	b.n	80020b4 <HAL_SPI_Transmit+0x120>
	...

08002120 <HAL_SPI_TransmitReceive>:
 8002120:	b5f7      	push	{r0, r1, r2, r4, r5, r6, r7, lr}
 8002122:	001e      	movs	r6, r3
 8002124:	0003      	movs	r3, r0
 8002126:	335c      	adds	r3, #92	; 0x5c
 8002128:	0017      	movs	r7, r2
 800212a:	781a      	ldrb	r2, [r3, #0]
 800212c:	0004      	movs	r4, r0
 800212e:	000d      	movs	r5, r1
 8002130:	2002      	movs	r0, #2
 8002132:	2a01      	cmp	r2, #1
 8002134:	d01b      	beq.n	800216e <HAL_SPI_TransmitReceive+0x4e>
 8002136:	2201      	movs	r2, #1
 8002138:	701a      	strb	r2, [r3, #0]
 800213a:	f7fe fd61 	bl	8000c00 <HAL_GetTick>
 800213e:	0023      	movs	r3, r4
 8002140:	9001      	str	r0, [sp, #4]
 8002142:	335d      	adds	r3, #93	; 0x5d
 8002144:	781b      	ldrb	r3, [r3, #0]
 8002146:	6861      	ldr	r1, [r4, #4]
 8002148:	b2da      	uxtb	r2, r3
 800214a:	2b01      	cmp	r3, #1
 800214c:	d009      	beq.n	8002162 <HAL_SPI_TransmitReceive+0x42>
 800214e:	2382      	movs	r3, #130	; 0x82
 8002150:	2002      	movs	r0, #2
 8002152:	005b      	lsls	r3, r3, #1
 8002154:	4299      	cmp	r1, r3
 8002156:	d107      	bne.n	8002168 <HAL_SPI_TransmitReceive+0x48>
 8002158:	68a3      	ldr	r3, [r4, #8]
 800215a:	2b00      	cmp	r3, #0
 800215c:	d104      	bne.n	8002168 <HAL_SPI_TransmitReceive+0x48>
 800215e:	2a04      	cmp	r2, #4
 8002160:	d102      	bne.n	8002168 <HAL_SPI_TransmitReceive+0x48>
 8002162:	2d00      	cmp	r5, #0
 8002164:	d104      	bne.n	8002170 <HAL_SPI_TransmitReceive+0x50>
 8002166:	2001      	movs	r0, #1
 8002168:	2300      	movs	r3, #0
 800216a:	345c      	adds	r4, #92	; 0x5c
 800216c:	7023      	strb	r3, [r4, #0]
 800216e:	bdfe      	pop	{r1, r2, r3, r4, r5, r6, r7, pc}
 8002170:	2f00      	cmp	r7, #0
 8002172:	d0f8      	beq.n	8002166 <HAL_SPI_TransmitReceive+0x46>
 8002174:	2e00      	cmp	r6, #0
 8002176:	d0f6      	beq.n	8002166 <HAL_SPI_TransmitReceive+0x46>
 8002178:	0023      	movs	r3, r4
 800217a:	335d      	adds	r3, #93	; 0x5d
 800217c:	781a      	ldrb	r2, [r3, #0]
 800217e:	2a04      	cmp	r2, #4
 8002180:	d001      	beq.n	8002186 <HAL_SPI_TransmitReceive+0x66>
 8002182:	2205      	movs	r2, #5
 8002184:	701a      	strb	r2, [r3, #0]
 8002186:	0022      	movs	r2, r4
 8002188:	2300      	movs	r3, #0
 800218a:	3208      	adds	r2, #8
 800218c:	6623      	str	r3, [r4, #96]	; 0x60
 800218e:	6427      	str	r7, [r4, #64]	; 0x40
 8002190:	87d6      	strh	r6, [r2, #62]	; 0x3e
 8002192:	1da2      	adds	r2, r4, #6
 8002194:	87d6      	strh	r6, [r2, #62]	; 0x3e
 8002196:	22e0      	movs	r2, #224	; 0xe0
 8002198:	68e0      	ldr	r0, [r4, #12]
 800219a:	64e3      	str	r3, [r4, #76]	; 0x4c
 800219c:	6523      	str	r3, [r4, #80]	; 0x50
 800219e:	63a5      	str	r5, [r4, #56]	; 0x38
 80021a0:	6823      	ldr	r3, [r4, #0]
 80021a2:	87e6      	strh	r6, [r4, #62]	; 0x3e
 80021a4:	87a6      	strh	r6, [r4, #60]	; 0x3c
 80021a6:	00d2      	lsls	r2, r2, #3
 80021a8:	4290      	cmp	r0, r2
 80021aa:	d935      	bls.n	8002218 <HAL_SPI_TransmitReceive+0xf8>
 80021ac:	685a      	ldr	r2, [r3, #4]
 80021ae:	4f60      	ldr	r7, [pc, #384]	; (8002330 <HAL_SPI_TransmitReceive+0x210>)
 80021b0:	403a      	ands	r2, r7
 80021b2:	605a      	str	r2, [r3, #4]
 80021b4:	2240      	movs	r2, #64	; 0x40
 80021b6:	681f      	ldr	r7, [r3, #0]
 80021b8:	4217      	tst	r7, r2
 80021ba:	d102      	bne.n	80021c2 <HAL_SPI_TransmitReceive+0xa2>
 80021bc:	681f      	ldr	r7, [r3, #0]
 80021be:	433a      	orrs	r2, r7
 80021c0:	601a      	str	r2, [r3, #0]
 80021c2:	22e0      	movs	r2, #224	; 0xe0
 80021c4:	00d2      	lsls	r2, r2, #3
 80021c6:	4290      	cmp	r0, r2
 80021c8:	d961      	bls.n	800228e <HAL_SPI_TransmitReceive+0x16e>
 80021ca:	2900      	cmp	r1, #0
 80021cc:	d001      	beq.n	80021d2 <HAL_SPI_TransmitReceive+0xb2>
 80021ce:	2e01      	cmp	r6, #1
 80021d0:	d107      	bne.n	80021e2 <HAL_SPI_TransmitReceive+0xc2>
 80021d2:	882a      	ldrh	r2, [r5, #0]
 80021d4:	3502      	adds	r5, #2
 80021d6:	60da      	str	r2, [r3, #12]
 80021d8:	8fe3      	ldrh	r3, [r4, #62]	; 0x3e
 80021da:	63a5      	str	r5, [r4, #56]	; 0x38
 80021dc:	3b01      	subs	r3, #1
 80021de:	b29b      	uxth	r3, r3
 80021e0:	87e3      	strh	r3, [r4, #62]	; 0x3e
 80021e2:	2501      	movs	r5, #1
 80021e4:	2702      	movs	r7, #2
 80021e6:	002e      	movs	r6, r5
 80021e8:	8fe3      	ldrh	r3, [r4, #62]	; 0x3e
 80021ea:	2b00      	cmp	r3, #0
 80021ec:	d119      	bne.n	8002222 <HAL_SPI_TransmitReceive+0x102>
 80021ee:	0023      	movs	r3, r4
 80021f0:	3308      	adds	r3, #8
 80021f2:	8fdb      	ldrh	r3, [r3, #62]	; 0x3e
 80021f4:	2b00      	cmp	r3, #0
 80021f6:	d114      	bne.n	8002222 <HAL_SPI_TransmitReceive+0x102>
 80021f8:	0020      	movs	r0, r4
 80021fa:	9a01      	ldr	r2, [sp, #4]
 80021fc:	9908      	ldr	r1, [sp, #32]
 80021fe:	f7ff fe2e 	bl	8001e5e <SPI_EndRxTxTransaction>
 8002202:	2800      	cmp	r0, #0
 8002204:	d000      	beq.n	8002208 <HAL_SPI_TransmitReceive+0xe8>
 8002206:	e08e      	b.n	8002326 <HAL_SPI_TransmitReceive+0x206>
 8002208:	6e23      	ldr	r3, [r4, #96]	; 0x60
 800220a:	2b00      	cmp	r3, #0
 800220c:	d1ab      	bne.n	8002166 <HAL_SPI_TransmitReceive+0x46>
 800220e:	0023      	movs	r3, r4
 8002210:	2201      	movs	r2, #1
 8002212:	335d      	adds	r3, #93	; 0x5d
 8002214:	701a      	strb	r2, [r3, #0]
 8002216:	e7a7      	b.n	8002168 <HAL_SPI_TransmitReceive+0x48>
 8002218:	2280      	movs	r2, #128	; 0x80
 800221a:	685f      	ldr	r7, [r3, #4]
 800221c:	0152      	lsls	r2, r2, #5
 800221e:	433a      	orrs	r2, r7
 8002220:	e7c7      	b.n	80021b2 <HAL_SPI_TransmitReceive+0x92>
 8002222:	6820      	ldr	r0, [r4, #0]
 8002224:	6883      	ldr	r3, [r0, #8]
 8002226:	423b      	tst	r3, r7
 8002228:	d00e      	beq.n	8002248 <HAL_SPI_TransmitReceive+0x128>
 800222a:	8fe3      	ldrh	r3, [r4, #62]	; 0x3e
 800222c:	2b00      	cmp	r3, #0
 800222e:	d00b      	beq.n	8002248 <HAL_SPI_TransmitReceive+0x128>
 8002230:	2d01      	cmp	r5, #1
 8002232:	d109      	bne.n	8002248 <HAL_SPI_TransmitReceive+0x128>
 8002234:	2500      	movs	r5, #0
 8002236:	6ba3      	ldr	r3, [r4, #56]	; 0x38
 8002238:	881a      	ldrh	r2, [r3, #0]
 800223a:	3302      	adds	r3, #2
 800223c:	60c2      	str	r2, [r0, #12]
 800223e:	63a3      	str	r3, [r4, #56]	; 0x38
 8002240:	8fe3      	ldrh	r3, [r4, #62]	; 0x3e
 8002242:	3b01      	subs	r3, #1
 8002244:	b29b      	uxth	r3, r3
 8002246:	87e3      	strh	r3, [r4, #62]	; 0x3e
 8002248:	6883      	ldr	r3, [r0, #8]
 800224a:	0019      	movs	r1, r3
 800224c:	4031      	ands	r1, r6
 800224e:	4233      	tst	r3, r6
 8002250:	d00e      	beq.n	8002270 <HAL_SPI_TransmitReceive+0x150>
 8002252:	0022      	movs	r2, r4
 8002254:	3208      	adds	r2, #8
 8002256:	8fd3      	ldrh	r3, [r2, #62]	; 0x3e
 8002258:	2b00      	cmp	r3, #0
 800225a:	d009      	beq.n	8002270 <HAL_SPI_TransmitReceive+0x150>
 800225c:	000d      	movs	r5, r1
 800225e:	68c0      	ldr	r0, [r0, #12]
 8002260:	6c23      	ldr	r3, [r4, #64]	; 0x40
 8002262:	8018      	strh	r0, [r3, #0]
 8002264:	3302      	adds	r3, #2
 8002266:	6423      	str	r3, [r4, #64]	; 0x40
 8002268:	8fd3      	ldrh	r3, [r2, #62]	; 0x3e
 800226a:	3b01      	subs	r3, #1
 800226c:	b29b      	uxth	r3, r3
 800226e:	87d3      	strh	r3, [r2, #62]	; 0x3e
 8002270:	f7fe fcc6 	bl	8000c00 <HAL_GetTick>
 8002274:	9b01      	ldr	r3, [sp, #4]
 8002276:	1ac0      	subs	r0, r0, r3
 8002278:	9b08      	ldr	r3, [sp, #32]
 800227a:	4298      	cmp	r0, r3
 800227c:	d3b4      	bcc.n	80021e8 <HAL_SPI_TransmitReceive+0xc8>
 800227e:	3301      	adds	r3, #1
 8002280:	d0b2      	beq.n	80021e8 <HAL_SPI_TransmitReceive+0xc8>
 8002282:	0023      	movs	r3, r4
 8002284:	2201      	movs	r2, #1
 8002286:	335d      	adds	r3, #93	; 0x5d
 8002288:	2003      	movs	r0, #3
 800228a:	701a      	strb	r2, [r3, #0]
 800228c:	e76c      	b.n	8002168 <HAL_SPI_TransmitReceive+0x48>
 800228e:	2900      	cmp	r1, #0
 8002290:	d001      	beq.n	8002296 <HAL_SPI_TransmitReceive+0x176>
 8002292:	2e01      	cmp	r6, #1
 8002294:	d108      	bne.n	80022a8 <HAL_SPI_TransmitReceive+0x188>
 8002296:	782a      	ldrb	r2, [r5, #0]
 8002298:	731a      	strb	r2, [r3, #12]
 800229a:	6ba3      	ldr	r3, [r4, #56]	; 0x38
 800229c:	3301      	adds	r3, #1
 800229e:	63a3      	str	r3, [r4, #56]	; 0x38
 80022a0:	8fe3      	ldrh	r3, [r4, #62]	; 0x3e
 80022a2:	3b01      	subs	r3, #1
 80022a4:	b29b      	uxth	r3, r3
 80022a6:	87e3      	strh	r3, [r4, #62]	; 0x3e
 80022a8:	2501      	movs	r5, #1
 80022aa:	2702      	movs	r7, #2
 80022ac:	002e      	movs	r6, r5
 80022ae:	8fe3      	ldrh	r3, [r4, #62]	; 0x3e
 80022b0:	2b00      	cmp	r3, #0
 80022b2:	d104      	bne.n	80022be <HAL_SPI_TransmitReceive+0x19e>
 80022b4:	0023      	movs	r3, r4
 80022b6:	3308      	adds	r3, #8
 80022b8:	8fdb      	ldrh	r3, [r3, #62]	; 0x3e
 80022ba:	2b00      	cmp	r3, #0
 80022bc:	d09c      	beq.n	80021f8 <HAL_SPI_TransmitReceive+0xd8>
 80022be:	6823      	ldr	r3, [r4, #0]
 80022c0:	689a      	ldr	r2, [r3, #8]
 80022c2:	423a      	tst	r2, r7
 80022c4:	d00f      	beq.n	80022e6 <HAL_SPI_TransmitReceive+0x1c6>
 80022c6:	8fe2      	ldrh	r2, [r4, #62]	; 0x3e
 80022c8:	2a00      	cmp	r2, #0
 80022ca:	d00c      	beq.n	80022e6 <HAL_SPI_TransmitReceive+0x1c6>
 80022cc:	2d01      	cmp	r5, #1
 80022ce:	d10a      	bne.n	80022e6 <HAL_SPI_TransmitReceive+0x1c6>
 80022d0:	2500      	movs	r5, #0
 80022d2:	6ba2      	ldr	r2, [r4, #56]	; 0x38
 80022d4:	7812      	ldrb	r2, [r2, #0]
 80022d6:	731a      	strb	r2, [r3, #12]
 80022d8:	6ba3      	ldr	r3, [r4, #56]	; 0x38
 80022da:	3301      	adds	r3, #1
 80022dc:	63a3      	str	r3, [r4, #56]	; 0x38
 80022de:	8fe3      	ldrh	r3, [r4, #62]	; 0x3e
 80022e0:	3b01      	subs	r3, #1
 80022e2:	b29b      	uxth	r3, r3
 80022e4:	87e3      	strh	r3, [r4, #62]	; 0x3e
 80022e6:	6823      	ldr	r3, [r4, #0]
 80022e8:	689a      	ldr	r2, [r3, #8]
 80022ea:	0011      	movs	r1, r2
 80022ec:	4031      	ands	r1, r6
 80022ee:	4232      	tst	r2, r6
 80022f0:	d00f      	beq.n	8002312 <HAL_SPI_TransmitReceive+0x1f2>
 80022f2:	0022      	movs	r2, r4
 80022f4:	3208      	adds	r2, #8
 80022f6:	8fd0      	ldrh	r0, [r2, #62]	; 0x3e
 80022f8:	2800      	cmp	r0, #0
 80022fa:	d00a      	beq.n	8002312 <HAL_SPI_TransmitReceive+0x1f2>
 80022fc:	000d      	movs	r5, r1
 80022fe:	7b1b      	ldrb	r3, [r3, #12]
 8002300:	6c20      	ldr	r0, [r4, #64]	; 0x40
 8002302:	7003      	strb	r3, [r0, #0]
 8002304:	6c23      	ldr	r3, [r4, #64]	; 0x40
 8002306:	3301      	adds	r3, #1
 8002308:	6423      	str	r3, [r4, #64]	; 0x40
 800230a:	8fd3      	ldrh	r3, [r2, #62]	; 0x3e
 800230c:	3b01      	subs	r3, #1
 800230e:	b29b      	uxth	r3, r3
 8002310:	87d3      	strh	r3, [r2, #62]	; 0x3e
 8002312:	f7fe fc75 	bl	8000c00 <HAL_GetTick>
 8002316:	9b01      	ldr	r3, [sp, #4]
 8002318:	1ac0      	subs	r0, r0, r3
 800231a:	9b08      	ldr	r3, [sp, #32]
 800231c:	4298      	cmp	r0, r3
 800231e:	d3c6      	bcc.n	80022ae <HAL_SPI_TransmitReceive+0x18e>
 8002320:	3301      	adds	r3, #1
 8002322:	d0c4      	beq.n	80022ae <HAL_SPI_TransmitReceive+0x18e>
 8002324:	e7ad      	b.n	8002282 <HAL_SPI_TransmitReceive+0x162>
 8002326:	2320      	movs	r3, #32
 8002328:	2001      	movs	r0, #1
 800232a:	6623      	str	r3, [r4, #96]	; 0x60
 800232c:	e76c      	b.n	8002208 <HAL_SPI_TransmitReceive+0xe8>
 800232e:	46c0      	nop			; (mov r8, r8)
 8002330:	ffffefff 	.word	0xffffefff

08002334 <HAL_SPI_Receive>:
 8002334:	b5f0      	push	{r4, r5, r6, r7, lr}
 8002336:	001e      	movs	r6, r3
 8002338:	0003      	movs	r3, r0
 800233a:	b087      	sub	sp, #28
 800233c:	335d      	adds	r3, #93	; 0x5d
 800233e:	9204      	str	r2, [sp, #16]
 8002340:	9303      	str	r3, [sp, #12]
 8002342:	781b      	ldrb	r3, [r3, #0]
 8002344:	0004      	movs	r4, r0
 8002346:	000f      	movs	r7, r1
 8002348:	b2dd      	uxtb	r5, r3
 800234a:	2b01      	cmp	r3, #1
 800234c:	d000      	beq.n	8002350 <HAL_SPI_Receive+0x1c>
 800234e:	e0ab      	b.n	80024a8 <HAL_SPI_Receive+0x174>
 8002350:	3304      	adds	r3, #4
 8002352:	6842      	ldr	r2, [r0, #4]
 8002354:	33ff      	adds	r3, #255	; 0xff
 8002356:	429a      	cmp	r2, r3
 8002358:	d10e      	bne.n	8002378 <HAL_SPI_Receive+0x44>
 800235a:	6883      	ldr	r3, [r0, #8]
 800235c:	2b00      	cmp	r3, #0
 800235e:	d10b      	bne.n	8002378 <HAL_SPI_Receive+0x44>
 8002360:	9a03      	ldr	r2, [sp, #12]
 8002362:	3304      	adds	r3, #4
 8002364:	7013      	strb	r3, [r2, #0]
 8002366:	000a      	movs	r2, r1
 8002368:	9b04      	ldr	r3, [sp, #16]
 800236a:	9600      	str	r6, [sp, #0]
 800236c:	f7ff fed8 	bl	8002120 <HAL_SPI_TransmitReceive>
 8002370:	0005      	movs	r5, r0
 8002372:	0028      	movs	r0, r5
 8002374:	b007      	add	sp, #28
 8002376:	bdf0      	pop	{r4, r5, r6, r7, pc}
 8002378:	0023      	movs	r3, r4
 800237a:	335c      	adds	r3, #92	; 0x5c
 800237c:	781a      	ldrb	r2, [r3, #0]
 800237e:	2a01      	cmp	r2, #1
 8002380:	d100      	bne.n	8002384 <HAL_SPI_Receive+0x50>
 8002382:	e093      	b.n	80024ac <HAL_SPI_Receive+0x178>
 8002384:	2201      	movs	r2, #1
 8002386:	701a      	strb	r2, [r3, #0]
 8002388:	f7fe fc3a 	bl	8000c00 <HAL_GetTick>
 800238c:	9005      	str	r0, [sp, #20]
 800238e:	2f00      	cmp	r7, #0
 8002390:	d07a      	beq.n	8002488 <HAL_SPI_Receive+0x154>
 8002392:	9b04      	ldr	r3, [sp, #16]
 8002394:	2b00      	cmp	r3, #0
 8002396:	d077      	beq.n	8002488 <HAL_SPI_Receive+0x154>
 8002398:	2304      	movs	r3, #4
 800239a:	9a03      	ldr	r2, [sp, #12]
 800239c:	9904      	ldr	r1, [sp, #16]
 800239e:	7013      	strb	r3, [r2, #0]
 80023a0:	2300      	movs	r3, #0
 80023a2:	1da2      	adds	r2, r4, #6
 80023a4:	6623      	str	r3, [r4, #96]	; 0x60
 80023a6:	6427      	str	r7, [r4, #64]	; 0x40
 80023a8:	3202      	adds	r2, #2
 80023aa:	8791      	strh	r1, [r2, #60]	; 0x3c
 80023ac:	87d1      	strh	r1, [r2, #62]	; 0x3e
 80023ae:	22e0      	movs	r2, #224	; 0xe0
 80023b0:	68e1      	ldr	r1, [r4, #12]
 80023b2:	63a3      	str	r3, [r4, #56]	; 0x38
 80023b4:	87a3      	strh	r3, [r4, #60]	; 0x3c
 80023b6:	87e3      	strh	r3, [r4, #62]	; 0x3e
 80023b8:	64e3      	str	r3, [r4, #76]	; 0x4c
 80023ba:	6523      	str	r3, [r4, #80]	; 0x50
 80023bc:	00d2      	lsls	r2, r2, #3
 80023be:	6823      	ldr	r3, [r4, #0]
 80023c0:	4291      	cmp	r1, r2
 80023c2:	d92f      	bls.n	8002424 <HAL_SPI_Receive+0xf0>
 80023c4:	685a      	ldr	r2, [r3, #4]
 80023c6:	483a      	ldr	r0, [pc, #232]	; (80024b0 <HAL_SPI_Receive+0x17c>)
 80023c8:	4002      	ands	r2, r0
 80023ca:	605a      	str	r2, [r3, #4]
 80023cc:	2280      	movs	r2, #128	; 0x80
 80023ce:	68a0      	ldr	r0, [r4, #8]
 80023d0:	0212      	lsls	r2, r2, #8
 80023d2:	4290      	cmp	r0, r2
 80023d4:	d107      	bne.n	80023e6 <HAL_SPI_Receive+0xb2>
 80023d6:	2040      	movs	r0, #64	; 0x40
 80023d8:	681a      	ldr	r2, [r3, #0]
 80023da:	4382      	bics	r2, r0
 80023dc:	601a      	str	r2, [r3, #0]
 80023de:	681a      	ldr	r2, [r3, #0]
 80023e0:	4834      	ldr	r0, [pc, #208]	; (80024b4 <HAL_SPI_Receive+0x180>)
 80023e2:	4002      	ands	r2, r0
 80023e4:	601a      	str	r2, [r3, #0]
 80023e6:	2240      	movs	r2, #64	; 0x40
 80023e8:	6818      	ldr	r0, [r3, #0]
 80023ea:	4210      	tst	r0, r2
 80023ec:	d102      	bne.n	80023f4 <HAL_SPI_Receive+0xc0>
 80023ee:	6818      	ldr	r0, [r3, #0]
 80023f0:	4302      	orrs	r2, r0
 80023f2:	601a      	str	r2, [r3, #0]
 80023f4:	23e0      	movs	r3, #224	; 0xe0
 80023f6:	0027      	movs	r7, r4
 80023f8:	00db      	lsls	r3, r3, #3
 80023fa:	3708      	adds	r7, #8
 80023fc:	4299      	cmp	r1, r3
 80023fe:	d925      	bls.n	800244c <HAL_SPI_Receive+0x118>
 8002400:	8ffb      	ldrh	r3, [r7, #62]	; 0x3e
 8002402:	2b00      	cmp	r3, #0
 8002404:	d025      	beq.n	8002452 <HAL_SPI_Receive+0x11e>
 8002406:	2101      	movs	r1, #1
 8002408:	6823      	ldr	r3, [r4, #0]
 800240a:	689a      	ldr	r2, [r3, #8]
 800240c:	420a      	tst	r2, r1
 800240e:	d03f      	beq.n	8002490 <HAL_SPI_Receive+0x15c>
 8002410:	68da      	ldr	r2, [r3, #12]
 8002412:	6c23      	ldr	r3, [r4, #64]	; 0x40
 8002414:	801a      	strh	r2, [r3, #0]
 8002416:	3302      	adds	r3, #2
 8002418:	6423      	str	r3, [r4, #64]	; 0x40
 800241a:	8ffb      	ldrh	r3, [r7, #62]	; 0x3e
 800241c:	3b01      	subs	r3, #1
 800241e:	b29b      	uxth	r3, r3
 8002420:	87fb      	strh	r3, [r7, #62]	; 0x3e
 8002422:	e7ed      	b.n	8002400 <HAL_SPI_Receive+0xcc>
 8002424:	2280      	movs	r2, #128	; 0x80
 8002426:	6858      	ldr	r0, [r3, #4]
 8002428:	0152      	lsls	r2, r2, #5
 800242a:	4302      	orrs	r2, r0
 800242c:	e7cd      	b.n	80023ca <HAL_SPI_Receive+0x96>
 800242e:	2101      	movs	r1, #1
 8002430:	6823      	ldr	r3, [r4, #0]
 8002432:	689a      	ldr	r2, [r3, #8]
 8002434:	420a      	tst	r2, r1
 8002436:	d01b      	beq.n	8002470 <HAL_SPI_Receive+0x13c>
 8002438:	7b1b      	ldrb	r3, [r3, #12]
 800243a:	6c22      	ldr	r2, [r4, #64]	; 0x40
 800243c:	7013      	strb	r3, [r2, #0]
 800243e:	6c23      	ldr	r3, [r4, #64]	; 0x40
 8002440:	185b      	adds	r3, r3, r1
 8002442:	6423      	str	r3, [r4, #64]	; 0x40
 8002444:	8ffb      	ldrh	r3, [r7, #62]	; 0x3e
 8002446:	3b01      	subs	r3, #1
 8002448:	b29b      	uxth	r3, r3
 800244a:	87fb      	strh	r3, [r7, #62]	; 0x3e
 800244c:	8ffb      	ldrh	r3, [r7, #62]	; 0x3e
 800244e:	2b00      	cmp	r3, #0
 8002450:	d1ed      	bne.n	800242e <HAL_SPI_Receive+0xfa>
 8002452:	0031      	movs	r1, r6
 8002454:	0020      	movs	r0, r4
 8002456:	9a05      	ldr	r2, [sp, #20]
 8002458:	f7ff fcc4 	bl	8001de4 <SPI_EndRxTransaction>
 800245c:	2800      	cmp	r0, #0
 800245e:	d120      	bne.n	80024a2 <HAL_SPI_Receive+0x16e>
 8002460:	6e23      	ldr	r3, [r4, #96]	; 0x60
 8002462:	2b00      	cmp	r3, #0
 8002464:	d110      	bne.n	8002488 <HAL_SPI_Receive+0x154>
 8002466:	2201      	movs	r2, #1
 8002468:	9903      	ldr	r1, [sp, #12]
 800246a:	001d      	movs	r5, r3
 800246c:	700a      	strb	r2, [r1, #0]
 800246e:	e00b      	b.n	8002488 <HAL_SPI_Receive+0x154>
 8002470:	f7fe fbc6 	bl	8000c00 <HAL_GetTick>
 8002474:	9b05      	ldr	r3, [sp, #20]
 8002476:	1ac0      	subs	r0, r0, r3
 8002478:	42b0      	cmp	r0, r6
 800247a:	d3e7      	bcc.n	800244c <HAL_SPI_Receive+0x118>
 800247c:	1c73      	adds	r3, r6, #1
 800247e:	d0e5      	beq.n	800244c <HAL_SPI_Receive+0x118>
 8002480:	2201      	movs	r2, #1
 8002482:	2503      	movs	r5, #3
 8002484:	9b03      	ldr	r3, [sp, #12]
 8002486:	701a      	strb	r2, [r3, #0]
 8002488:	2300      	movs	r3, #0
 800248a:	345c      	adds	r4, #92	; 0x5c
 800248c:	7023      	strb	r3, [r4, #0]
 800248e:	e770      	b.n	8002372 <HAL_SPI_Receive+0x3e>
 8002490:	f7fe fbb6 	bl	8000c00 <HAL_GetTick>
 8002494:	9b05      	ldr	r3, [sp, #20]
 8002496:	1ac0      	subs	r0, r0, r3
 8002498:	42b0      	cmp	r0, r6
 800249a:	d3b1      	bcc.n	8002400 <HAL_SPI_Receive+0xcc>
 800249c:	1c73      	adds	r3, r6, #1
 800249e:	d0af      	beq.n	8002400 <HAL_SPI_Receive+0xcc>
 80024a0:	e7ee      	b.n	8002480 <HAL_SPI_Receive+0x14c>
 80024a2:	2320      	movs	r3, #32
 80024a4:	6623      	str	r3, [r4, #96]	; 0x60
 80024a6:	e7db      	b.n	8002460 <HAL_SPI_Receive+0x12c>
 80024a8:	2502      	movs	r5, #2
 80024aa:	e7ed      	b.n	8002488 <HAL_SPI_Receive+0x154>
 80024ac:	2502      	movs	r5, #2
 80024ae:	e760      	b.n	8002372 <HAL_SPI_Receive+0x3e>
 80024b0:	ffffefff 	.word	0xffffefff
 80024b4:	ffffbfff 	.word	0xffffbfff

080024b8 <TIM_OC1_SetConfig>:
 80024b8:	b570      	push	{r4, r5, r6, lr}
 80024ba:	2401      	movs	r4, #1
 80024bc:	6a03      	ldr	r3, [r0, #32]
 80024be:	6a02      	ldr	r2, [r0, #32]
 80024c0:	43a2      	bics	r2, r4
 80024c2:	6202      	str	r2, [r0, #32]
 80024c4:	6844      	ldr	r4, [r0, #4]
 80024c6:	4a16      	ldr	r2, [pc, #88]	; (8002520 <TIM_OC1_SetConfig+0x68>)
 80024c8:	6985      	ldr	r5, [r0, #24]
 80024ca:	4015      	ands	r5, r2
 80024cc:	680a      	ldr	r2, [r1, #0]
 80024ce:	4315      	orrs	r5, r2
 80024d0:	2202      	movs	r2, #2
 80024d2:	4393      	bics	r3, r2
 80024d4:	688a      	ldr	r2, [r1, #8]
 80024d6:	4313      	orrs	r3, r2
 80024d8:	4a12      	ldr	r2, [pc, #72]	; (8002524 <TIM_OC1_SetConfig+0x6c>)
 80024da:	4290      	cmp	r0, r2
 80024dc:	d005      	beq.n	80024ea <TIM_OC1_SetConfig+0x32>
 80024de:	4e12      	ldr	r6, [pc, #72]	; (8002528 <TIM_OC1_SetConfig+0x70>)
 80024e0:	42b0      	cmp	r0, r6
 80024e2:	d002      	beq.n	80024ea <TIM_OC1_SetConfig+0x32>
 80024e4:	4e11      	ldr	r6, [pc, #68]	; (800252c <TIM_OC1_SetConfig+0x74>)
 80024e6:	42b0      	cmp	r0, r6
 80024e8:	d113      	bne.n	8002512 <TIM_OC1_SetConfig+0x5a>
 80024ea:	2608      	movs	r6, #8
 80024ec:	43b3      	bics	r3, r6
 80024ee:	68ce      	ldr	r6, [r1, #12]
 80024f0:	4333      	orrs	r3, r6
 80024f2:	2604      	movs	r6, #4
 80024f4:	43b3      	bics	r3, r6
 80024f6:	4290      	cmp	r0, r2
 80024f8:	d005      	beq.n	8002506 <TIM_OC1_SetConfig+0x4e>
 80024fa:	4a0b      	ldr	r2, [pc, #44]	; (8002528 <TIM_OC1_SetConfig+0x70>)
 80024fc:	4290      	cmp	r0, r2
 80024fe:	d002      	beq.n	8002506 <TIM_OC1_SetConfig+0x4e>
 8002500:	4a0a      	ldr	r2, [pc, #40]	; (800252c <TIM_OC1_SetConfig+0x74>)
 8002502:	4290      	cmp	r0, r2
 8002504:	d105      	bne.n	8002512 <TIM_OC1_SetConfig+0x5a>
 8002506:	4a0a      	ldr	r2, [pc, #40]	; (8002530 <TIM_OC1_SetConfig+0x78>)
 8002508:	698e      	ldr	r6, [r1, #24]
 800250a:	4022      	ands	r2, r4
 800250c:	694c      	ldr	r4, [r1, #20]
 800250e:	4334      	orrs	r4, r6
 8002510:	4314      	orrs	r4, r2
 8002512:	684a      	ldr	r2, [r1, #4]
 8002514:	6044      	str	r4, [r0, #4]
 8002516:	6185      	str	r5, [r0, #24]
 8002518:	6342      	str	r2, [r0, #52]	; 0x34
 800251a:	6203      	str	r3, [r0, #32]
 800251c:	bd70      	pop	{r4, r5, r6, pc}
 800251e:	46c0      	nop			; (mov r8, r8)
 8002520:	fffeff8c 	.word	0xfffeff8c
 8002524:	40012c00 	.word	0x40012c00
 8002528:	40014400 	.word	0x40014400
 800252c:	40014800 	.word	0x40014800
 8002530:	fffffcff 	.word	0xfffffcff

08002534 <TIM_OC3_SetConfig>:
 8002534:	b570      	push	{r4, r5, r6, lr}
 8002536:	4a17      	ldr	r2, [pc, #92]	; (8002594 <TIM_OC3_SetConfig+0x60>)
 8002538:	6a05      	ldr	r5, [r0, #32]
 800253a:	6a03      	ldr	r3, [r0, #32]
 800253c:	4013      	ands	r3, r2
 800253e:	6203      	str	r3, [r0, #32]
 8002540:	6842      	ldr	r2, [r0, #4]
 8002542:	4b15      	ldr	r3, [pc, #84]	; (8002598 <TIM_OC3_SetConfig+0x64>)
 8002544:	69c4      	ldr	r4, [r0, #28]
 8002546:	401c      	ands	r4, r3
 8002548:	680b      	ldr	r3, [r1, #0]
 800254a:	431c      	orrs	r4, r3
 800254c:	4b13      	ldr	r3, [pc, #76]	; (800259c <TIM_OC3_SetConfig+0x68>)
 800254e:	401d      	ands	r5, r3
 8002550:	688b      	ldr	r3, [r1, #8]
 8002552:	021b      	lsls	r3, r3, #8
 8002554:	432b      	orrs	r3, r5
 8002556:	4d12      	ldr	r5, [pc, #72]	; (80025a0 <TIM_OC3_SetConfig+0x6c>)
 8002558:	42a8      	cmp	r0, r5
 800255a:	d10e      	bne.n	800257a <TIM_OC3_SetConfig+0x46>
 800255c:	4d11      	ldr	r5, [pc, #68]	; (80025a4 <TIM_OC3_SetConfig+0x70>)
 800255e:	401d      	ands	r5, r3
 8002560:	68cb      	ldr	r3, [r1, #12]
 8002562:	021b      	lsls	r3, r3, #8
 8002564:	432b      	orrs	r3, r5
 8002566:	4d10      	ldr	r5, [pc, #64]	; (80025a8 <TIM_OC3_SetConfig+0x74>)
 8002568:	402b      	ands	r3, r5
 800256a:	4d10      	ldr	r5, [pc, #64]	; (80025ac <TIM_OC3_SetConfig+0x78>)
 800256c:	694e      	ldr	r6, [r1, #20]
 800256e:	4015      	ands	r5, r2
 8002570:	698a      	ldr	r2, [r1, #24]
 8002572:	4332      	orrs	r2, r6
 8002574:	0112      	lsls	r2, r2, #4
 8002576:	432a      	orrs	r2, r5
 8002578:	e005      	b.n	8002586 <TIM_OC3_SetConfig+0x52>
 800257a:	4d0d      	ldr	r5, [pc, #52]	; (80025b0 <TIM_OC3_SetConfig+0x7c>)
 800257c:	42a8      	cmp	r0, r5
 800257e:	d0f4      	beq.n	800256a <TIM_OC3_SetConfig+0x36>
 8002580:	4d0c      	ldr	r5, [pc, #48]	; (80025b4 <TIM_OC3_SetConfig+0x80>)
 8002582:	42a8      	cmp	r0, r5
 8002584:	d0f1      	beq.n	800256a <TIM_OC3_SetConfig+0x36>
 8002586:	6042      	str	r2, [r0, #4]
 8002588:	684a      	ldr	r2, [r1, #4]
 800258a:	61c4      	str	r4, [r0, #28]
 800258c:	63c2      	str	r2, [r0, #60]	; 0x3c
 800258e:	6203      	str	r3, [r0, #32]
 8002590:	bd70      	pop	{r4, r5, r6, pc}
 8002592:	46c0      	nop			; (mov r8, r8)
 8002594:	fffffeff 	.word	0xfffffeff
 8002598:	fffeff8c 	.word	0xfffeff8c
 800259c:	fffffdff 	.word	0xfffffdff
 80025a0:	40012c00 	.word	0x40012c00
 80025a4:	fffff7ff 	.word	0xfffff7ff
 80025a8:	fffffbff 	.word	0xfffffbff
 80025ac:	ffffcfff 	.word	0xffffcfff
 80025b0:	40014400 	.word	0x40014400
 80025b4:	40014800 	.word	0x40014800

080025b8 <TIM_OC4_SetConfig>:
 80025b8:	b530      	push	{r4, r5, lr}
 80025ba:	4a12      	ldr	r2, [pc, #72]	; (8002604 <TIM_OC4_SetConfig+0x4c>)
 80025bc:	6a04      	ldr	r4, [r0, #32]
 80025be:	6a03      	ldr	r3, [r0, #32]
 80025c0:	4d11      	ldr	r5, [pc, #68]	; (8002608 <TIM_OC4_SetConfig+0x50>)
 80025c2:	4013      	ands	r3, r2
 80025c4:	6203      	str	r3, [r0, #32]
 80025c6:	6843      	ldr	r3, [r0, #4]
 80025c8:	69c2      	ldr	r2, [r0, #28]
 80025ca:	402a      	ands	r2, r5
 80025cc:	680d      	ldr	r5, [r1, #0]
 80025ce:	022d      	lsls	r5, r5, #8
 80025d0:	4315      	orrs	r5, r2
 80025d2:	4a0e      	ldr	r2, [pc, #56]	; (800260c <TIM_OC4_SetConfig+0x54>)
 80025d4:	4014      	ands	r4, r2
 80025d6:	688a      	ldr	r2, [r1, #8]
 80025d8:	0312      	lsls	r2, r2, #12
 80025da:	4322      	orrs	r2, r4
 80025dc:	4c0c      	ldr	r4, [pc, #48]	; (8002610 <TIM_OC4_SetConfig+0x58>)
 80025de:	42a0      	cmp	r0, r4
 80025e0:	d005      	beq.n	80025ee <TIM_OC4_SetConfig+0x36>
 80025e2:	4c0c      	ldr	r4, [pc, #48]	; (8002614 <TIM_OC4_SetConfig+0x5c>)
 80025e4:	42a0      	cmp	r0, r4
 80025e6:	d002      	beq.n	80025ee <TIM_OC4_SetConfig+0x36>
 80025e8:	4c0b      	ldr	r4, [pc, #44]	; (8002618 <TIM_OC4_SetConfig+0x60>)
 80025ea:	42a0      	cmp	r0, r4
 80025ec:	d104      	bne.n	80025f8 <TIM_OC4_SetConfig+0x40>
 80025ee:	4c0b      	ldr	r4, [pc, #44]	; (800261c <TIM_OC4_SetConfig+0x64>)
 80025f0:	401c      	ands	r4, r3
 80025f2:	694b      	ldr	r3, [r1, #20]
 80025f4:	019b      	lsls	r3, r3, #6
 80025f6:	4323      	orrs	r3, r4
 80025f8:	6043      	str	r3, [r0, #4]
 80025fa:	684b      	ldr	r3, [r1, #4]
 80025fc:	61c5      	str	r5, [r0, #28]
 80025fe:	6403      	str	r3, [r0, #64]	; 0x40
 8002600:	6202      	str	r2, [r0, #32]
 8002602:	bd30      	pop	{r4, r5, pc}
 8002604:	ffffefff 	.word	0xffffefff
 8002608:	feff8cff 	.word	0xfeff8cff
 800260c:	ffffdfff 	.word	0xffffdfff
 8002610:	40012c00 	.word	0x40012c00
 8002614:	40014400 	.word	0x40014400
 8002618:	40014800 	.word	0x40014800
 800261c:	ffffbfff 	.word	0xffffbfff

08002620 <TIM_OC5_SetConfig>:
 8002620:	b570      	push	{r4, r5, r6, lr}
 8002622:	6a06      	ldr	r6, [r0, #32]
 8002624:	4c10      	ldr	r4, [pc, #64]	; (8002668 <TIM_OC5_SetConfig+0x48>)
 8002626:	6a03      	ldr	r3, [r0, #32]
 8002628:	4a10      	ldr	r2, [pc, #64]	; (800266c <TIM_OC5_SetConfig+0x4c>)
 800262a:	4023      	ands	r3, r4
 800262c:	6203      	str	r3, [r0, #32]
 800262e:	6843      	ldr	r3, [r0, #4]
 8002630:	6d45      	ldr	r5, [r0, #84]	; 0x54
 8002632:	4015      	ands	r5, r2
 8002634:	680a      	ldr	r2, [r1, #0]
 8002636:	4315      	orrs	r5, r2
 8002638:	4a0d      	ldr	r2, [pc, #52]	; (8002670 <TIM_OC5_SetConfig+0x50>)
 800263a:	4016      	ands	r6, r2
 800263c:	688a      	ldr	r2, [r1, #8]
 800263e:	0412      	lsls	r2, r2, #16
 8002640:	4332      	orrs	r2, r6
 8002642:	4e0c      	ldr	r6, [pc, #48]	; (8002674 <TIM_OC5_SetConfig+0x54>)
 8002644:	42b0      	cmp	r0, r6
 8002646:	d005      	beq.n	8002654 <TIM_OC5_SetConfig+0x34>
 8002648:	4e0b      	ldr	r6, [pc, #44]	; (8002678 <TIM_OC5_SetConfig+0x58>)
 800264a:	42b0      	cmp	r0, r6
 800264c:	d002      	beq.n	8002654 <TIM_OC5_SetConfig+0x34>
 800264e:	4e0b      	ldr	r6, [pc, #44]	; (800267c <TIM_OC5_SetConfig+0x5c>)
 8002650:	42b0      	cmp	r0, r6
 8002652:	d103      	bne.n	800265c <TIM_OC5_SetConfig+0x3c>
 8002654:	401c      	ands	r4, r3
 8002656:	694b      	ldr	r3, [r1, #20]
 8002658:	021b      	lsls	r3, r3, #8
 800265a:	4323      	orrs	r3, r4
 800265c:	6043      	str	r3, [r0, #4]
 800265e:	684b      	ldr	r3, [r1, #4]
 8002660:	6545      	str	r5, [r0, #84]	; 0x54
 8002662:	6583      	str	r3, [r0, #88]	; 0x58
 8002664:	6202      	str	r2, [r0, #32]
 8002666:	bd70      	pop	{r4, r5, r6, pc}
 8002668:	fffeffff 	.word	0xfffeffff
 800266c:	fffeff8f 	.word	0xfffeff8f
 8002670:	fffdffff 	.word	0xfffdffff
 8002674:	40012c00 	.word	0x40012c00
 8002678:	40014400 	.word	0x40014400
 800267c:	40014800 	.word	0x40014800

08002680 <TIM_OC6_SetConfig>:
 8002680:	b530      	push	{r4, r5, lr}
 8002682:	4a12      	ldr	r2, [pc, #72]	; (80026cc <TIM_OC6_SetConfig+0x4c>)
 8002684:	6a04      	ldr	r4, [r0, #32]
 8002686:	6a03      	ldr	r3, [r0, #32]
 8002688:	4d11      	ldr	r5, [pc, #68]	; (80026d0 <TIM_OC6_SetConfig+0x50>)
 800268a:	4013      	ands	r3, r2
 800268c:	6203      	str	r3, [r0, #32]
 800268e:	6843      	ldr	r3, [r0, #4]
 8002690:	6d42      	ldr	r2, [r0, #84]	; 0x54
 8002692:	402a      	ands	r2, r5
 8002694:	680d      	ldr	r5, [r1, #0]
 8002696:	022d      	lsls	r5, r5, #8
 8002698:	4315      	orrs	r5, r2
 800269a:	4a0e      	ldr	r2, [pc, #56]	; (80026d4 <TIM_OC6_SetConfig+0x54>)
 800269c:	4014      	ands	r4, r2
 800269e:	688a      	ldr	r2, [r1, #8]
 80026a0:	0512      	lsls	r2, r2, #20
 80026a2:	4322      	orrs	r2, r4
 80026a4:	4c0c      	ldr	r4, [pc, #48]	; (80026d8 <TIM_OC6_SetConfig+0x58>)
 80026a6:	42a0      	cmp	r0, r4
 80026a8:	d005      	beq.n	80026b6 <TIM_OC6_SetConfig+0x36>
 80026aa:	4c0c      	ldr	r4, [pc, #48]	; (80026dc <TIM_OC6_SetConfig+0x5c>)
 80026ac:	42a0      	cmp	r0, r4
 80026ae:	d002      	beq.n	80026b6 <TIM_OC6_SetConfig+0x36>
 80026b0:	4c0b      	ldr	r4, [pc, #44]	; (80026e0 <TIM_OC6_SetConfig+0x60>)
 80026b2:	42a0      	cmp	r0, r4
 80026b4:	d104      	bne.n	80026c0 <TIM_OC6_SetConfig+0x40>
 80026b6:	4c0b      	ldr	r4, [pc, #44]	; (80026e4 <TIM_OC6_SetConfig+0x64>)
 80026b8:	401c      	ands	r4, r3
 80026ba:	694b      	ldr	r3, [r1, #20]
 80026bc:	029b      	lsls	r3, r3, #10
 80026be:	4323      	orrs	r3, r4
 80026c0:	6043      	str	r3, [r0, #4]
 80026c2:	684b      	ldr	r3, [r1, #4]
 80026c4:	6545      	str	r5, [r0, #84]	; 0x54
 80026c6:	65c3      	str	r3, [r0, #92]	; 0x5c
 80026c8:	6202      	str	r2, [r0, #32]
 80026ca:	bd30      	pop	{r4, r5, pc}
 80026cc:	ffefffff 	.word	0xffefffff
 80026d0:	feff8fff 	.word	0xfeff8fff
 80026d4:	ffdfffff 	.word	0xffdfffff
 80026d8:	40012c00 	.word	0x40012c00
 80026dc:	40014400 	.word	0x40014400
 80026e0:	40014800 	.word	0x40014800
 80026e4:	fffbffff 	.word	0xfffbffff

080026e8 <HAL_TIM_PWM_MspInit>:
 80026e8:	4770      	bx	lr
	...

080026ec <TIM_Base_SetConfig>:
 80026ec:	4a1c      	ldr	r2, [pc, #112]	; (8002760 <TIM_Base_SetConfig+0x74>)
 80026ee:	b510      	push	{r4, lr}
 80026f0:	6803      	ldr	r3, [r0, #0]
 80026f2:	4290      	cmp	r0, r2
 80026f4:	d002      	beq.n	80026fc <TIM_Base_SetConfig+0x10>
 80026f6:	4c1b      	ldr	r4, [pc, #108]	; (8002764 <TIM_Base_SetConfig+0x78>)
 80026f8:	42a0      	cmp	r0, r4
 80026fa:	d108      	bne.n	800270e <TIM_Base_SetConfig+0x22>
 80026fc:	2470      	movs	r4, #112	; 0x70
 80026fe:	43a3      	bics	r3, r4
 8002700:	684c      	ldr	r4, [r1, #4]
 8002702:	4323      	orrs	r3, r4
 8002704:	4290      	cmp	r0, r2
 8002706:	d00b      	beq.n	8002720 <TIM_Base_SetConfig+0x34>
 8002708:	4c16      	ldr	r4, [pc, #88]	; (8002764 <TIM_Base_SetConfig+0x78>)
 800270a:	42a0      	cmp	r0, r4
 800270c:	d008      	beq.n	8002720 <TIM_Base_SetConfig+0x34>
 800270e:	4c16      	ldr	r4, [pc, #88]	; (8002768 <TIM_Base_SetConfig+0x7c>)
 8002710:	42a0      	cmp	r0, r4
 8002712:	d005      	beq.n	8002720 <TIM_Base_SetConfig+0x34>
 8002714:	4c15      	ldr	r4, [pc, #84]	; (800276c <TIM_Base_SetConfig+0x80>)
 8002716:	42a0      	cmp	r0, r4
 8002718:	d002      	beq.n	8002720 <TIM_Base_SetConfig+0x34>
 800271a:	4c15      	ldr	r4, [pc, #84]	; (8002770 <TIM_Base_SetConfig+0x84>)
 800271c:	42a0      	cmp	r0, r4
 800271e:	d103      	bne.n	8002728 <TIM_Base_SetConfig+0x3c>
 8002720:	4c14      	ldr	r4, [pc, #80]	; (8002774 <TIM_Base_SetConfig+0x88>)
 8002722:	401c      	ands	r4, r3
 8002724:	68cb      	ldr	r3, [r1, #12]
 8002726:	4323      	orrs	r3, r4
 8002728:	2480      	movs	r4, #128	; 0x80
 800272a:	43a3      	bics	r3, r4
 800272c:	694c      	ldr	r4, [r1, #20]
 800272e:	4323      	orrs	r3, r4
 8002730:	6003      	str	r3, [r0, #0]
 8002732:	688b      	ldr	r3, [r1, #8]
 8002734:	62c3      	str	r3, [r0, #44]	; 0x2c
 8002736:	680b      	ldr	r3, [r1, #0]
 8002738:	6283      	str	r3, [r0, #40]	; 0x28
 800273a:	4290      	cmp	r0, r2
 800273c:	d005      	beq.n	800274a <TIM_Base_SetConfig+0x5e>
 800273e:	4b0b      	ldr	r3, [pc, #44]	; (800276c <TIM_Base_SetConfig+0x80>)
 8002740:	4298      	cmp	r0, r3
 8002742:	d002      	beq.n	800274a <TIM_Base_SetConfig+0x5e>
 8002744:	4b0a      	ldr	r3, [pc, #40]	; (8002770 <TIM_Base_SetConfig+0x84>)
 8002746:	4298      	cmp	r0, r3
 8002748:	d101      	bne.n	800274e <TIM_Base_SetConfig+0x62>
 800274a:	690b      	ldr	r3, [r1, #16]
 800274c:	6303      	str	r3, [r0, #48]	; 0x30
 800274e:	2201      	movs	r2, #1
 8002750:	6142      	str	r2, [r0, #20]
 8002752:	6903      	ldr	r3, [r0, #16]
 8002754:	4213      	tst	r3, r2
 8002756:	d002      	beq.n	800275e <TIM_Base_SetConfig+0x72>
 8002758:	6903      	ldr	r3, [r0, #16]
 800275a:	4393      	bics	r3, r2
 800275c:	6103      	str	r3, [r0, #16]
 800275e:	bd10      	pop	{r4, pc}
 8002760:	40012c00 	.word	0x40012c00
 8002764:	40000400 	.word	0x40000400
 8002768:	40002000 	.word	0x40002000
 800276c:	40014400 	.word	0x40014400
 8002770:	40014800 	.word	0x40014800
 8002774:	fffffcff 	.word	0xfffffcff

08002778 <HAL_TIM_Base_Init>:
 8002778:	b570      	push	{r4, r5, r6, lr}
 800277a:	0004      	movs	r4, r0
 800277c:	2001      	movs	r0, #1
 800277e:	2c00      	cmp	r4, #0
 8002780:	d023      	beq.n	80027ca <HAL_TIM_Base_Init+0x52>
 8002782:	0025      	movs	r5, r4
 8002784:	353d      	adds	r5, #61	; 0x3d
 8002786:	782b      	ldrb	r3, [r5, #0]
 8002788:	b2da      	uxtb	r2, r3
 800278a:	2b00      	cmp	r3, #0
 800278c:	d105      	bne.n	800279a <HAL_TIM_Base_Init+0x22>
 800278e:	0023      	movs	r3, r4
 8002790:	333c      	adds	r3, #60	; 0x3c
 8002792:	0020      	movs	r0, r4
 8002794:	701a      	strb	r2, [r3, #0]
 8002796:	f7fe f8b5 	bl	8000904 <HAL_TIM_Base_MspInit>
 800279a:	2302      	movs	r3, #2
 800279c:	702b      	strb	r3, [r5, #0]
 800279e:	6820      	ldr	r0, [r4, #0]
 80027a0:	1d21      	adds	r1, r4, #4
 80027a2:	f7ff ffa3 	bl	80026ec <TIM_Base_SetConfig>
 80027a6:	0022      	movs	r2, r4
 80027a8:	2301      	movs	r3, #1
 80027aa:	2000      	movs	r0, #0
 80027ac:	3248      	adds	r2, #72	; 0x48
 80027ae:	7013      	strb	r3, [r2, #0]
 80027b0:	3447      	adds	r4, #71	; 0x47
 80027b2:	3a0a      	subs	r2, #10
 80027b4:	7013      	strb	r3, [r2, #0]
 80027b6:	7053      	strb	r3, [r2, #1]
 80027b8:	7093      	strb	r3, [r2, #2]
 80027ba:	70d3      	strb	r3, [r2, #3]
 80027bc:	7113      	strb	r3, [r2, #4]
 80027be:	7153      	strb	r3, [r2, #5]
 80027c0:	7193      	strb	r3, [r2, #6]
 80027c2:	71d3      	strb	r3, [r2, #7]
 80027c4:	7213      	strb	r3, [r2, #8]
 80027c6:	7023      	strb	r3, [r4, #0]
 80027c8:	702b      	strb	r3, [r5, #0]
 80027ca:	bd70      	pop	{r4, r5, r6, pc}

080027cc <HAL_TIM_PWM_Init>:
 80027cc:	b570      	push	{r4, r5, r6, lr}
 80027ce:	0004      	movs	r4, r0
 80027d0:	2001      	movs	r0, #1
 80027d2:	2c00      	cmp	r4, #0
 80027d4:	d023      	beq.n	800281e <HAL_TIM_PWM_Init+0x52>
 80027d6:	0025      	movs	r5, r4
 80027d8:	353d      	adds	r5, #61	; 0x3d
 80027da:	782b      	ldrb	r3, [r5, #0]
 80027dc:	b2da      	uxtb	r2, r3
 80027de:	2b00      	cmp	r3, #0
 80027e0:	d105      	bne.n	80027ee <HAL_TIM_PWM_Init+0x22>
 80027e2:	0023      	movs	r3, r4
 80027e4:	333c      	adds	r3, #60	; 0x3c
 80027e6:	0020      	movs	r0, r4
 80027e8:	701a      	strb	r2, [r3, #0]
 80027ea:	f7ff ff7d 	bl	80026e8 <HAL_TIM_PWM_MspInit>
 80027ee:	2302      	movs	r3, #2
 80027f0:	702b      	strb	r3, [r5, #0]
 80027f2:	6820      	ldr	r0, [r4, #0]
 80027f4:	1d21      	adds	r1, r4, #4
 80027f6:	f7ff ff79 	bl	80026ec <TIM_Base_SetConfig>
 80027fa:	0022      	movs	r2, r4
 80027fc:	2301      	movs	r3, #1
 80027fe:	2000      	movs	r0, #0
 8002800:	3248      	adds	r2, #72	; 0x48
 8002802:	7013      	strb	r3, [r2, #0]
 8002804:	3447      	adds	r4, #71	; 0x47
 8002806:	3a0a      	subs	r2, #10
 8002808:	7013      	strb	r3, [r2, #0]
 800280a:	7053      	strb	r3, [r2, #1]
 800280c:	7093      	strb	r3, [r2, #2]
 800280e:	70d3      	strb	r3, [r2, #3]
 8002810:	7113      	strb	r3, [r2, #4]
 8002812:	7153      	strb	r3, [r2, #5]
 8002814:	7193      	strb	r3, [r2, #6]
 8002816:	71d3      	strb	r3, [r2, #7]
 8002818:	7213      	strb	r3, [r2, #8]
 800281a:	7023      	strb	r3, [r4, #0]
 800281c:	702b      	strb	r3, [r5, #0]
 800281e:	bd70      	pop	{r4, r5, r6, pc}

08002820 <TIM_OC2_SetConfig>:
 8002820:	2210      	movs	r2, #16
 8002822:	b570      	push	{r4, r5, r6, lr}
 8002824:	6a05      	ldr	r5, [r0, #32]
 8002826:	6a03      	ldr	r3, [r0, #32]
 8002828:	4c16      	ldr	r4, [pc, #88]	; (8002884 <TIM_OC2_SetConfig+0x64>)
 800282a:	4393      	bics	r3, r2
 800282c:	6203      	str	r3, [r0, #32]
 800282e:	6843      	ldr	r3, [r0, #4]
 8002830:	6982      	ldr	r2, [r0, #24]
 8002832:	4022      	ands	r2, r4
 8002834:	680c      	ldr	r4, [r1, #0]
 8002836:	0224      	lsls	r4, r4, #8
 8002838:	4314      	orrs	r4, r2
 800283a:	2220      	movs	r2, #32
 800283c:	4395      	bics	r5, r2
 800283e:	688a      	ldr	r2, [r1, #8]
 8002840:	0112      	lsls	r2, r2, #4
 8002842:	432a      	orrs	r2, r5
 8002844:	4d10      	ldr	r5, [pc, #64]	; (8002888 <TIM_OC2_SetConfig+0x68>)
 8002846:	42a8      	cmp	r0, r5
 8002848:	d10f      	bne.n	800286a <TIM_OC2_SetConfig+0x4a>
 800284a:	2580      	movs	r5, #128	; 0x80
 800284c:	43aa      	bics	r2, r5
 800284e:	0016      	movs	r6, r2
 8002850:	68ca      	ldr	r2, [r1, #12]
 8002852:	3d40      	subs	r5, #64	; 0x40
 8002854:	0112      	lsls	r2, r2, #4
 8002856:	4332      	orrs	r2, r6
 8002858:	43aa      	bics	r2, r5
 800285a:	4d0c      	ldr	r5, [pc, #48]	; (800288c <TIM_OC2_SetConfig+0x6c>)
 800285c:	694e      	ldr	r6, [r1, #20]
 800285e:	401d      	ands	r5, r3
 8002860:	698b      	ldr	r3, [r1, #24]
 8002862:	4333      	orrs	r3, r6
 8002864:	009b      	lsls	r3, r3, #2
 8002866:	432b      	orrs	r3, r5
 8002868:	e005      	b.n	8002876 <TIM_OC2_SetConfig+0x56>
 800286a:	4d09      	ldr	r5, [pc, #36]	; (8002890 <TIM_OC2_SetConfig+0x70>)
 800286c:	42a8      	cmp	r0, r5
 800286e:	d0f4      	beq.n	800285a <TIM_OC2_SetConfig+0x3a>
 8002870:	4d08      	ldr	r5, [pc, #32]	; (8002894 <TIM_OC2_SetConfig+0x74>)
 8002872:	42a8      	cmp	r0, r5
 8002874:	d0f1      	beq.n	800285a <TIM_OC2_SetConfig+0x3a>
 8002876:	6043      	str	r3, [r0, #4]
 8002878:	684b      	ldr	r3, [r1, #4]
 800287a:	6184      	str	r4, [r0, #24]
 800287c:	6383      	str	r3, [r0, #56]	; 0x38
 800287e:	6202      	str	r2, [r0, #32]
 8002880:	bd70      	pop	{r4, r5, r6, pc}
 8002882:	46c0      	nop			; (mov r8, r8)
 8002884:	feff8cff 	.word	0xfeff8cff
 8002888:	40012c00 	.word	0x40012c00
 800288c:	fffff3ff 	.word	0xfffff3ff
 8002890:	40014400 	.word	0x40014400
 8002894:	40014800 	.word	0x40014800

08002898 <HAL_TIM_PWM_ConfigChannel>:
 8002898:	b5f8      	push	{r3, r4, r5, r6, r7, lr}
 800289a:	0006      	movs	r6, r0
 800289c:	363c      	adds	r6, #60	; 0x3c
 800289e:	0015      	movs	r5, r2
 80028a0:	7832      	ldrb	r2, [r6, #0]
 80028a2:	0003      	movs	r3, r0
 80028a4:	000c      	movs	r4, r1
 80028a6:	2002      	movs	r0, #2
 80028a8:	2a01      	cmp	r2, #1
 80028aa:	d00c      	beq.n	80028c6 <HAL_TIM_PWM_ConfigChannel+0x2e>
 80028ac:	3801      	subs	r0, #1
 80028ae:	7030      	strb	r0, [r6, #0]
 80028b0:	2d0c      	cmp	r5, #12
 80028b2:	d053      	beq.n	800295c <HAL_TIM_PWM_ConfigChannel+0xc4>
 80028b4:	d808      	bhi.n	80028c8 <HAL_TIM_PWM_ConfigChannel+0x30>
 80028b6:	2d04      	cmp	r5, #4
 80028b8:	d02d      	beq.n	8002916 <HAL_TIM_PWM_ConfigChannel+0x7e>
 80028ba:	2d08      	cmp	r5, #8
 80028bc:	d03e      	beq.n	800293c <HAL_TIM_PWM_ConfigChannel+0xa4>
 80028be:	2d00      	cmp	r5, #0
 80028c0:	d017      	beq.n	80028f2 <HAL_TIM_PWM_ConfigChannel+0x5a>
 80028c2:	2300      	movs	r3, #0
 80028c4:	7033      	strb	r3, [r6, #0]
 80028c6:	bdf8      	pop	{r3, r4, r5, r6, r7, pc}
 80028c8:	2d10      	cmp	r5, #16
 80028ca:	d05a      	beq.n	8002982 <HAL_TIM_PWM_ConfigChannel+0xea>
 80028cc:	2d14      	cmp	r5, #20
 80028ce:	d1f8      	bne.n	80028c2 <HAL_TIM_PWM_ConfigChannel+0x2a>
 80028d0:	681d      	ldr	r5, [r3, #0]
 80028d2:	0028      	movs	r0, r5
 80028d4:	f7ff fed4 	bl	8002680 <TIM_OC6_SetConfig>
 80028d8:	2380      	movs	r3, #128	; 0x80
 80028da:	6d6a      	ldr	r2, [r5, #84]	; 0x54
 80028dc:	011b      	lsls	r3, r3, #4
 80028de:	4313      	orrs	r3, r2
 80028e0:	656b      	str	r3, [r5, #84]	; 0x54
 80028e2:	6d6b      	ldr	r3, [r5, #84]	; 0x54
 80028e4:	4a2f      	ldr	r2, [pc, #188]	; (80029a4 <HAL_TIM_PWM_ConfigChannel+0x10c>)
 80028e6:	4013      	ands	r3, r2
 80028e8:	656b      	str	r3, [r5, #84]	; 0x54
 80028ea:	6923      	ldr	r3, [r4, #16]
 80028ec:	6d6a      	ldr	r2, [r5, #84]	; 0x54
 80028ee:	021b      	lsls	r3, r3, #8
 80028f0:	e055      	b.n	800299e <HAL_TIM_PWM_ConfigChannel+0x106>
 80028f2:	681f      	ldr	r7, [r3, #0]
 80028f4:	0038      	movs	r0, r7
 80028f6:	f7ff fddf 	bl	80024b8 <TIM_OC1_SetConfig>
 80028fa:	2308      	movs	r3, #8
 80028fc:	69ba      	ldr	r2, [r7, #24]
 80028fe:	4313      	orrs	r3, r2
 8002900:	2204      	movs	r2, #4
 8002902:	61bb      	str	r3, [r7, #24]
 8002904:	69bb      	ldr	r3, [r7, #24]
 8002906:	4393      	bics	r3, r2
 8002908:	61bb      	str	r3, [r7, #24]
 800290a:	69bb      	ldr	r3, [r7, #24]
 800290c:	6922      	ldr	r2, [r4, #16]
 800290e:	4313      	orrs	r3, r2
 8002910:	61bb      	str	r3, [r7, #24]
 8002912:	2000      	movs	r0, #0
 8002914:	e7d5      	b.n	80028c2 <HAL_TIM_PWM_ConfigChannel+0x2a>
 8002916:	681d      	ldr	r5, [r3, #0]
 8002918:	0028      	movs	r0, r5
 800291a:	f7ff ff81 	bl	8002820 <TIM_OC2_SetConfig>
 800291e:	2380      	movs	r3, #128	; 0x80
 8002920:	69aa      	ldr	r2, [r5, #24]
 8002922:	011b      	lsls	r3, r3, #4
 8002924:	4313      	orrs	r3, r2
 8002926:	61ab      	str	r3, [r5, #24]
 8002928:	69ab      	ldr	r3, [r5, #24]
 800292a:	4a1e      	ldr	r2, [pc, #120]	; (80029a4 <HAL_TIM_PWM_ConfigChannel+0x10c>)
 800292c:	4013      	ands	r3, r2
 800292e:	61ab      	str	r3, [r5, #24]
 8002930:	6923      	ldr	r3, [r4, #16]
 8002932:	69aa      	ldr	r2, [r5, #24]
 8002934:	021b      	lsls	r3, r3, #8
 8002936:	4313      	orrs	r3, r2
 8002938:	61ab      	str	r3, [r5, #24]
 800293a:	e7ea      	b.n	8002912 <HAL_TIM_PWM_ConfigChannel+0x7a>
 800293c:	681f      	ldr	r7, [r3, #0]
 800293e:	0038      	movs	r0, r7
 8002940:	f7ff fdf8 	bl	8002534 <TIM_OC3_SetConfig>
 8002944:	2204      	movs	r2, #4
 8002946:	69fb      	ldr	r3, [r7, #28]
 8002948:	431d      	orrs	r5, r3
 800294a:	61fd      	str	r5, [r7, #28]
 800294c:	69fb      	ldr	r3, [r7, #28]
 800294e:	4393      	bics	r3, r2
 8002950:	61fb      	str	r3, [r7, #28]
 8002952:	69fb      	ldr	r3, [r7, #28]
 8002954:	6922      	ldr	r2, [r4, #16]
 8002956:	4313      	orrs	r3, r2
 8002958:	61fb      	str	r3, [r7, #28]
 800295a:	e7da      	b.n	8002912 <HAL_TIM_PWM_ConfigChannel+0x7a>
 800295c:	681d      	ldr	r5, [r3, #0]
 800295e:	0028      	movs	r0, r5
 8002960:	f7ff fe2a 	bl	80025b8 <TIM_OC4_SetConfig>
 8002964:	2380      	movs	r3, #128	; 0x80
 8002966:	69ea      	ldr	r2, [r5, #28]
 8002968:	011b      	lsls	r3, r3, #4
 800296a:	4313      	orrs	r3, r2
 800296c:	61eb      	str	r3, [r5, #28]
 800296e:	69eb      	ldr	r3, [r5, #28]
 8002970:	4a0c      	ldr	r2, [pc, #48]	; (80029a4 <HAL_TIM_PWM_ConfigChannel+0x10c>)
 8002972:	4013      	ands	r3, r2
 8002974:	61eb      	str	r3, [r5, #28]
 8002976:	6923      	ldr	r3, [r4, #16]
 8002978:	69ea      	ldr	r2, [r5, #28]
 800297a:	021b      	lsls	r3, r3, #8
 800297c:	4313      	orrs	r3, r2
 800297e:	61eb      	str	r3, [r5, #28]
 8002980:	e7c7      	b.n	8002912 <HAL_TIM_PWM_ConfigChannel+0x7a>
 8002982:	681d      	ldr	r5, [r3, #0]
 8002984:	0028      	movs	r0, r5
 8002986:	f7ff fe4b 	bl	8002620 <TIM_OC5_SetConfig>
 800298a:	2308      	movs	r3, #8
 800298c:	6d6a      	ldr	r2, [r5, #84]	; 0x54
 800298e:	4313      	orrs	r3, r2
 8002990:	2204      	movs	r2, #4
 8002992:	656b      	str	r3, [r5, #84]	; 0x54
 8002994:	6d6b      	ldr	r3, [r5, #84]	; 0x54
 8002996:	4393      	bics	r3, r2
 8002998:	656b      	str	r3, [r5, #84]	; 0x54
 800299a:	6d6b      	ldr	r3, [r5, #84]	; 0x54
 800299c:	6922      	ldr	r2, [r4, #16]
 800299e:	4313      	orrs	r3, r2
 80029a0:	656b      	str	r3, [r5, #84]	; 0x54
 80029a2:	e7b6      	b.n	8002912 <HAL_TIM_PWM_ConfigChannel+0x7a>
 80029a4:	fffffbff 	.word	0xfffffbff

080029a8 <TIM_CCxChannelCmd>:
 80029a8:	231f      	movs	r3, #31
 80029aa:	b510      	push	{r4, lr}
 80029ac:	2401      	movs	r4, #1
 80029ae:	4019      	ands	r1, r3
 80029b0:	408c      	lsls	r4, r1
 80029b2:	408a      	lsls	r2, r1
 80029b4:	6a03      	ldr	r3, [r0, #32]
 80029b6:	43a3      	bics	r3, r4
 80029b8:	6203      	str	r3, [r0, #32]
 80029ba:	6a03      	ldr	r3, [r0, #32]
 80029bc:	431a      	orrs	r2, r3
 80029be:	6202      	str	r2, [r0, #32]
 80029c0:	bd10      	pop	{r4, pc}
	...

080029c4 <HAL_TIM_OC_Start>:
 80029c4:	0002      	movs	r2, r0
 80029c6:	b510      	push	{r4, lr}
 80029c8:	2908      	cmp	r1, #8
 80029ca:	d02a      	beq.n	8002a22 <HAL_TIM_OC_Start+0x5e>
 80029cc:	d814      	bhi.n	80029f8 <HAL_TIM_OC_Start+0x34>
 80029ce:	2900      	cmp	r1, #0
 80029d0:	d019      	beq.n	8002a06 <HAL_TIM_OC_Start+0x42>
 80029d2:	2904      	cmp	r1, #4
 80029d4:	d022      	beq.n	8002a1c <HAL_TIM_OC_Start+0x58>
 80029d6:	0013      	movs	r3, r2
 80029d8:	2001      	movs	r0, #1
 80029da:	3343      	adds	r3, #67	; 0x43
 80029dc:	781b      	ldrb	r3, [r3, #0]
 80029de:	4283      	cmp	r3, r0
 80029e0:	d11b      	bne.n	8002a1a <HAL_TIM_OC_Start+0x56>
 80029e2:	2908      	cmp	r1, #8
 80029e4:	d831      	bhi.n	8002a4a <HAL_TIM_OC_Start+0x86>
 80029e6:	2302      	movs	r3, #2
 80029e8:	2900      	cmp	r1, #0
 80029ea:	d036      	beq.n	8002a5a <HAL_TIM_OC_Start+0x96>
 80029ec:	2904      	cmp	r1, #4
 80029ee:	d056      	beq.n	8002a9e <HAL_TIM_OC_Start+0xda>
 80029f0:	0013      	movs	r3, r2
 80029f2:	2002      	movs	r0, #2
 80029f4:	3343      	adds	r3, #67	; 0x43
 80029f6:	e023      	b.n	8002a40 <HAL_TIM_OC_Start+0x7c>
 80029f8:	290c      	cmp	r1, #12
 80029fa:	d023      	beq.n	8002a44 <HAL_TIM_OC_Start+0x80>
 80029fc:	2910      	cmp	r1, #16
 80029fe:	d1ea      	bne.n	80029d6 <HAL_TIM_OC_Start+0x12>
 8002a00:	0003      	movs	r3, r0
 8002a02:	3342      	adds	r3, #66	; 0x42
 8002a04:	e00f      	b.n	8002a26 <HAL_TIM_OC_Start+0x62>
 8002a06:	0003      	movs	r3, r0
 8002a08:	333e      	adds	r3, #62	; 0x3e
 8002a0a:	781b      	ldrb	r3, [r3, #0]
 8002a0c:	3b01      	subs	r3, #1
 8002a0e:	1e58      	subs	r0, r3, #1
 8002a10:	4183      	sbcs	r3, r0
 8002a12:	b2db      	uxtb	r3, r3
 8002a14:	2001      	movs	r0, #1
 8002a16:	2b00      	cmp	r3, #0
 8002a18:	d0e5      	beq.n	80029e6 <HAL_TIM_OC_Start+0x22>
 8002a1a:	bd10      	pop	{r4, pc}
 8002a1c:	0003      	movs	r3, r0
 8002a1e:	333f      	adds	r3, #63	; 0x3f
 8002a20:	e7f3      	b.n	8002a0a <HAL_TIM_OC_Start+0x46>
 8002a22:	0003      	movs	r3, r0
 8002a24:	3340      	adds	r3, #64	; 0x40
 8002a26:	781b      	ldrb	r3, [r3, #0]
 8002a28:	3b01      	subs	r3, #1
 8002a2a:	1e58      	subs	r0, r3, #1
 8002a2c:	4183      	sbcs	r3, r0
 8002a2e:	b2db      	uxtb	r3, r3
 8002a30:	2001      	movs	r0, #1
 8002a32:	2b00      	cmp	r3, #0
 8002a34:	d1f1      	bne.n	8002a1a <HAL_TIM_OC_Start+0x56>
 8002a36:	2908      	cmp	r1, #8
 8002a38:	d1d3      	bne.n	80029e2 <HAL_TIM_OC_Start+0x1e>
 8002a3a:	0013      	movs	r3, r2
 8002a3c:	2002      	movs	r0, #2
 8002a3e:	3340      	adds	r3, #64	; 0x40
 8002a40:	7018      	strb	r0, [r3, #0]
 8002a42:	e00d      	b.n	8002a60 <HAL_TIM_OC_Start+0x9c>
 8002a44:	0003      	movs	r3, r0
 8002a46:	3341      	adds	r3, #65	; 0x41
 8002a48:	e7ed      	b.n	8002a26 <HAL_TIM_OC_Start+0x62>
 8002a4a:	2302      	movs	r3, #2
 8002a4c:	290c      	cmp	r1, #12
 8002a4e:	d029      	beq.n	8002aa4 <HAL_TIM_OC_Start+0xe0>
 8002a50:	2910      	cmp	r1, #16
 8002a52:	d1cd      	bne.n	80029f0 <HAL_TIM_OC_Start+0x2c>
 8002a54:	0010      	movs	r0, r2
 8002a56:	3042      	adds	r0, #66	; 0x42
 8002a58:	e001      	b.n	8002a5e <HAL_TIM_OC_Start+0x9a>
 8002a5a:	0010      	movs	r0, r2
 8002a5c:	303e      	adds	r0, #62	; 0x3e
 8002a5e:	7003      	strb	r3, [r0, #0]
 8002a60:	6814      	ldr	r4, [r2, #0]
 8002a62:	2201      	movs	r2, #1
 8002a64:	0020      	movs	r0, r4
 8002a66:	f7ff ff9f 	bl	80029a8 <TIM_CCxChannelCmd>
 8002a6a:	4a17      	ldr	r2, [pc, #92]	; (8002ac8 <HAL_TIM_OC_Start+0x104>)
 8002a6c:	4294      	cmp	r4, r2
 8002a6e:	d01c      	beq.n	8002aaa <HAL_TIM_OC_Start+0xe6>
 8002a70:	4b16      	ldr	r3, [pc, #88]	; (8002acc <HAL_TIM_OC_Start+0x108>)
 8002a72:	429c      	cmp	r4, r3
 8002a74:	d019      	beq.n	8002aaa <HAL_TIM_OC_Start+0xe6>
 8002a76:	4b16      	ldr	r3, [pc, #88]	; (8002ad0 <HAL_TIM_OC_Start+0x10c>)
 8002a78:	429c      	cmp	r4, r3
 8002a7a:	d016      	beq.n	8002aaa <HAL_TIM_OC_Start+0xe6>
 8002a7c:	4b15      	ldr	r3, [pc, #84]	; (8002ad4 <HAL_TIM_OC_Start+0x110>)
 8002a7e:	429c      	cmp	r4, r3
 8002a80:	d11b      	bne.n	8002aba <HAL_TIM_OC_Start+0xf6>
 8002a82:	68a3      	ldr	r3, [r4, #8]
 8002a84:	4a14      	ldr	r2, [pc, #80]	; (8002ad8 <HAL_TIM_OC_Start+0x114>)
 8002a86:	2000      	movs	r0, #0
 8002a88:	4013      	ands	r3, r2
 8002a8a:	2b06      	cmp	r3, #6
 8002a8c:	d0c5      	beq.n	8002a1a <HAL_TIM_OC_Start+0x56>
 8002a8e:	3a07      	subs	r2, #7
 8002a90:	4293      	cmp	r3, r2
 8002a92:	d0c2      	beq.n	8002a1a <HAL_TIM_OC_Start+0x56>
 8002a94:	2301      	movs	r3, #1
 8002a96:	6822      	ldr	r2, [r4, #0]
 8002a98:	4313      	orrs	r3, r2
 8002a9a:	6023      	str	r3, [r4, #0]
 8002a9c:	e7bd      	b.n	8002a1a <HAL_TIM_OC_Start+0x56>
 8002a9e:	0010      	movs	r0, r2
 8002aa0:	303f      	adds	r0, #63	; 0x3f
 8002aa2:	e7dc      	b.n	8002a5e <HAL_TIM_OC_Start+0x9a>
 8002aa4:	0010      	movs	r0, r2
 8002aa6:	3041      	adds	r0, #65	; 0x41
 8002aa8:	e7d9      	b.n	8002a5e <HAL_TIM_OC_Start+0x9a>
 8002aaa:	2380      	movs	r3, #128	; 0x80
 8002aac:	6c61      	ldr	r1, [r4, #68]	; 0x44
 8002aae:	021b      	lsls	r3, r3, #8
 8002ab0:	430b      	orrs	r3, r1
 8002ab2:	6463      	str	r3, [r4, #68]	; 0x44
 8002ab4:	4294      	cmp	r4, r2
 8002ab6:	d1e1      	bne.n	8002a7c <HAL_TIM_OC_Start+0xb8>
 8002ab8:	e7e3      	b.n	8002a82 <HAL_TIM_OC_Start+0xbe>
 8002aba:	2301      	movs	r3, #1
 8002abc:	6822      	ldr	r2, [r4, #0]
 8002abe:	2000      	movs	r0, #0
 8002ac0:	4313      	orrs	r3, r2
 8002ac2:	6023      	str	r3, [r4, #0]
 8002ac4:	e7a9      	b.n	8002a1a <HAL_TIM_OC_Start+0x56>
 8002ac6:	46c0      	nop			; (mov r8, r8)
 8002ac8:	40012c00 	.word	0x40012c00
 8002acc:	40014400 	.word	0x40014400
 8002ad0:	40014800 	.word	0x40014800
 8002ad4:	40000400 	.word	0x40000400
 8002ad8:	00010007 	.word	0x00010007

08002adc <HAL_TIM_PWM_Start>:
 8002adc:	b510      	push	{r4, lr}
 8002ade:	f7ff ff71 	bl	80029c4 <HAL_TIM_OC_Start>
 8002ae2:	bd10      	pop	{r4, pc}

08002ae4 <HAL_TIMEx_ConfigBreakDeadTime>:
 8002ae4:	b510      	push	{r4, lr}
 8002ae6:	0004      	movs	r4, r0
 8002ae8:	343c      	adds	r4, #60	; 0x3c
 8002aea:	7823      	ldrb	r3, [r4, #0]
 8002aec:	0002      	movs	r2, r0
 8002aee:	2002      	movs	r0, #2
 8002af0:	2b01      	cmp	r3, #1
 8002af2:	d039      	beq.n	8002b68 <HAL_TIMEx_ConfigBreakDeadTime+0x84>
 8002af4:	481d      	ldr	r0, [pc, #116]	; (8002b6c <HAL_TIMEx_ConfigBreakDeadTime+0x88>)
 8002af6:	68cb      	ldr	r3, [r1, #12]
 8002af8:	4003      	ands	r3, r0
 8002afa:	6888      	ldr	r0, [r1, #8]
 8002afc:	4303      	orrs	r3, r0
 8002afe:	481c      	ldr	r0, [pc, #112]	; (8002b70 <HAL_TIMEx_ConfigBreakDeadTime+0x8c>)
 8002b00:	4003      	ands	r3, r0
 8002b02:	6848      	ldr	r0, [r1, #4]
 8002b04:	4303      	orrs	r3, r0
 8002b06:	481b      	ldr	r0, [pc, #108]	; (8002b74 <HAL_TIMEx_ConfigBreakDeadTime+0x90>)
 8002b08:	4003      	ands	r3, r0
 8002b0a:	6808      	ldr	r0, [r1, #0]
 8002b0c:	4303      	orrs	r3, r0
 8002b0e:	481a      	ldr	r0, [pc, #104]	; (8002b78 <HAL_TIMEx_ConfigBreakDeadTime+0x94>)
 8002b10:	4003      	ands	r3, r0
 8002b12:	6908      	ldr	r0, [r1, #16]
 8002b14:	4303      	orrs	r3, r0
 8002b16:	4819      	ldr	r0, [pc, #100]	; (8002b7c <HAL_TIMEx_ConfigBreakDeadTime+0x98>)
 8002b18:	4003      	ands	r3, r0
 8002b1a:	6948      	ldr	r0, [r1, #20]
 8002b1c:	4303      	orrs	r3, r0
 8002b1e:	4818      	ldr	r0, [pc, #96]	; (8002b80 <HAL_TIMEx_ConfigBreakDeadTime+0x9c>)
 8002b20:	4003      	ands	r3, r0
 8002b22:	6b08      	ldr	r0, [r1, #48]	; 0x30
 8002b24:	4303      	orrs	r3, r0
 8002b26:	4817      	ldr	r0, [pc, #92]	; (8002b84 <HAL_TIMEx_ConfigBreakDeadTime+0xa0>)
 8002b28:	4003      	ands	r3, r0
 8002b2a:	6988      	ldr	r0, [r1, #24]
 8002b2c:	0400      	lsls	r0, r0, #16
 8002b2e:	4303      	orrs	r3, r0
 8002b30:	4815      	ldr	r0, [pc, #84]	; (8002b88 <HAL_TIMEx_ConfigBreakDeadTime+0xa4>)
 8002b32:	4003      	ands	r3, r0
 8002b34:	69c8      	ldr	r0, [r1, #28]
 8002b36:	4303      	orrs	r3, r0
 8002b38:	6810      	ldr	r0, [r2, #0]
 8002b3a:	4a14      	ldr	r2, [pc, #80]	; (8002b8c <HAL_TIMEx_ConfigBreakDeadTime+0xa8>)
 8002b3c:	4290      	cmp	r0, r2
 8002b3e:	d110      	bne.n	8002b62 <HAL_TIMEx_ConfigBreakDeadTime+0x7e>
 8002b40:	4a13      	ldr	r2, [pc, #76]	; (8002b90 <HAL_TIMEx_ConfigBreakDeadTime+0xac>)
 8002b42:	4013      	ands	r3, r2
 8002b44:	6a8a      	ldr	r2, [r1, #40]	; 0x28
 8002b46:	0512      	lsls	r2, r2, #20
 8002b48:	431a      	orrs	r2, r3
 8002b4a:	4b12      	ldr	r3, [pc, #72]	; (8002b94 <HAL_TIMEx_ConfigBreakDeadTime+0xb0>)
 8002b4c:	401a      	ands	r2, r3
 8002b4e:	6a0b      	ldr	r3, [r1, #32]
 8002b50:	431a      	orrs	r2, r3
 8002b52:	4b11      	ldr	r3, [pc, #68]	; (8002b98 <HAL_TIMEx_ConfigBreakDeadTime+0xb4>)
 8002b54:	401a      	ands	r2, r3
 8002b56:	6a4b      	ldr	r3, [r1, #36]	; 0x24
 8002b58:	431a      	orrs	r2, r3
 8002b5a:	4b10      	ldr	r3, [pc, #64]	; (8002b9c <HAL_TIMEx_ConfigBreakDeadTime+0xb8>)
 8002b5c:	401a      	ands	r2, r3
 8002b5e:	6acb      	ldr	r3, [r1, #44]	; 0x2c
 8002b60:	4313      	orrs	r3, r2
 8002b62:	6443      	str	r3, [r0, #68]	; 0x44
 8002b64:	2000      	movs	r0, #0
 8002b66:	7020      	strb	r0, [r4, #0]
 8002b68:	bd10      	pop	{r4, pc}
 8002b6a:	46c0      	nop			; (mov r8, r8)
 8002b6c:	fffffcff 	.word	0xfffffcff
 8002b70:	fffffbff 	.word	0xfffffbff
 8002b74:	fffff7ff 	.word	0xfffff7ff
 8002b78:	ffffefff 	.word	0xffffefff
 8002b7c:	ffffdfff 	.word	0xffffdfff
 8002b80:	ffffbfff 	.word	0xffffbfff
 8002b84:	fff0ffff 	.word	0xfff0ffff
 8002b88:	efffffff 	.word	0xefffffff
 8002b8c:	40012c00 	.word	0x40012c00
 8002b90:	ff0fffff 	.word	0xff0fffff
 8002b94:	feffffff 	.word	0xfeffffff
 8002b98:	fdffffff 	.word	0xfdffffff
 8002b9c:	dfffffff 	.word	0xdfffffff

08002ba0 <UART_EndRxTransfer>:
 8002ba0:	b530      	push	{r4, r5, lr}
 8002ba2:	f3ef 8410 	mrs	r4, PRIMASK
 8002ba6:	2201      	movs	r2, #1
 8002ba8:	f382 8810 	msr	PRIMASK, r2
 8002bac:	6801      	ldr	r1, [r0, #0]
 8002bae:	4d13      	ldr	r5, [pc, #76]	; (8002bfc <UART_EndRxTransfer+0x5c>)
 8002bb0:	680b      	ldr	r3, [r1, #0]
 8002bb2:	402b      	ands	r3, r5
 8002bb4:	600b      	str	r3, [r1, #0]
 8002bb6:	f384 8810 	msr	PRIMASK, r4
 8002bba:	f3ef 8110 	mrs	r1, PRIMASK
 8002bbe:	f382 8810 	msr	PRIMASK, r2
 8002bc2:	6802      	ldr	r2, [r0, #0]
 8002bc4:	4c0e      	ldr	r4, [pc, #56]	; (8002c00 <UART_EndRxTransfer+0x60>)
 8002bc6:	6893      	ldr	r3, [r2, #8]
 8002bc8:	4023      	ands	r3, r4
 8002bca:	6093      	str	r3, [r2, #8]
 8002bcc:	f381 8810 	msr	PRIMASK, r1
 8002bd0:	6ec3      	ldr	r3, [r0, #108]	; 0x6c
 8002bd2:	2b01      	cmp	r3, #1
 8002bd4:	d10a      	bne.n	8002bec <UART_EndRxTransfer+0x4c>
 8002bd6:	f3ef 8110 	mrs	r1, PRIMASK
 8002bda:	f383 8810 	msr	PRIMASK, r3
 8002bde:	2410      	movs	r4, #16
 8002be0:	6802      	ldr	r2, [r0, #0]
 8002be2:	6813      	ldr	r3, [r2, #0]
 8002be4:	43a3      	bics	r3, r4
 8002be6:	6013      	str	r3, [r2, #0]
 8002be8:	f381 8810 	msr	PRIMASK, r1
 8002bec:	0003      	movs	r3, r0
 8002bee:	2220      	movs	r2, #32
 8002bf0:	338c      	adds	r3, #140	; 0x8c
 8002bf2:	601a      	str	r2, [r3, #0]
 8002bf4:	2300      	movs	r3, #0
 8002bf6:	66c3      	str	r3, [r0, #108]	; 0x6c
 8002bf8:	6743      	str	r3, [r0, #116]	; 0x74
 8002bfa:	bd30      	pop	{r4, r5, pc}
 8002bfc:	fffffedf 	.word	0xfffffedf
 8002c00:	effffffe 	.word	0xeffffffe

08002c04 <UART_SetConfig>:
 8002c04:	b570      	push	{r4, r5, r6, lr}
 8002c06:	0004      	movs	r4, r0
 8002c08:	6925      	ldr	r5, [r4, #16]
 8002c0a:	68a1      	ldr	r1, [r4, #8]
 8002c0c:	6802      	ldr	r2, [r0, #0]
 8002c0e:	4329      	orrs	r1, r5
 8002c10:	6965      	ldr	r5, [r4, #20]
 8002c12:	69c3      	ldr	r3, [r0, #28]
 8002c14:	4329      	orrs	r1, r5
 8002c16:	6810      	ldr	r0, [r2, #0]
 8002c18:	4d48      	ldr	r5, [pc, #288]	; (8002d3c <UART_SetConfig+0x138>)
 8002c1a:	4319      	orrs	r1, r3
 8002c1c:	4028      	ands	r0, r5
 8002c1e:	4301      	orrs	r1, r0
 8002c20:	6011      	str	r1, [r2, #0]
 8002c22:	6851      	ldr	r1, [r2, #4]
 8002c24:	4846      	ldr	r0, [pc, #280]	; (8002d40 <UART_SetConfig+0x13c>)
 8002c26:	6a25      	ldr	r5, [r4, #32]
 8002c28:	4001      	ands	r1, r0
 8002c2a:	68e0      	ldr	r0, [r4, #12]
 8002c2c:	4301      	orrs	r1, r0
 8002c2e:	6051      	str	r1, [r2, #4]
 8002c30:	69a1      	ldr	r1, [r4, #24]
 8002c32:	6890      	ldr	r0, [r2, #8]
 8002c34:	4329      	orrs	r1, r5
 8002c36:	4d43      	ldr	r5, [pc, #268]	; (8002d44 <UART_SetConfig+0x140>)
 8002c38:	4028      	ands	r0, r5
 8002c3a:	4301      	orrs	r1, r0
 8002c3c:	200f      	movs	r0, #15
 8002c3e:	6091      	str	r1, [r2, #8]
 8002c40:	6ad1      	ldr	r1, [r2, #44]	; 0x2c
 8002c42:	4381      	bics	r1, r0
 8002c44:	6a60      	ldr	r0, [r4, #36]	; 0x24
 8002c46:	4301      	orrs	r1, r0
 8002c48:	62d1      	str	r1, [r2, #44]	; 0x2c
 8002c4a:	493f      	ldr	r1, [pc, #252]	; (8002d48 <UART_SetConfig+0x144>)
 8002c4c:	428a      	cmp	r2, r1
 8002c4e:	d115      	bne.n	8002c7c <UART_SetConfig+0x78>
 8002c50:	2103      	movs	r1, #3
 8002c52:	4a3e      	ldr	r2, [pc, #248]	; (8002d4c <UART_SetConfig+0x148>)
 8002c54:	6d52      	ldr	r2, [r2, #84]	; 0x54
 8002c56:	400a      	ands	r2, r1
 8002c58:	2180      	movs	r1, #128	; 0x80
 8002c5a:	3a01      	subs	r2, #1
 8002c5c:	0209      	lsls	r1, r1, #8
 8002c5e:	2a02      	cmp	r2, #2
 8002c60:	d85f      	bhi.n	8002d22 <UART_SetConfig+0x11e>
 8002c62:	483b      	ldr	r0, [pc, #236]	; (8002d50 <UART_SetConfig+0x14c>)
 8002c64:	5c80      	ldrb	r0, [r0, r2]
 8002c66:	428b      	cmp	r3, r1
 8002c68:	d014      	beq.n	8002c94 <UART_SetConfig+0x90>
 8002c6a:	2808      	cmp	r0, #8
 8002c6c:	d857      	bhi.n	8002d1e <UART_SetConfig+0x11a>
 8002c6e:	f7fd fa47 	bl	8000100 <__gnu_thumb1_case_uqi>
 8002c72:	560c      	.short	0x560c
 8002c74:	56515654 	.word	0x56515654
 8002c78:	5656      	.short	0x5656
 8002c7a:	3b          	.byte	0x3b
 8002c7b:	00          	.byte	0x00
 8002c7c:	4935      	ldr	r1, [pc, #212]	; (8002d54 <UART_SetConfig+0x150>)
 8002c7e:	428a      	cmp	r2, r1
 8002c80:	d14d      	bne.n	8002d1e <UART_SetConfig+0x11a>
 8002c82:	2280      	movs	r2, #128	; 0x80
 8002c84:	0212      	lsls	r2, r2, #8
 8002c86:	4293      	cmp	r3, r2
 8002c88:	d04d      	beq.n	8002d26 <UART_SetConfig+0x122>
 8002c8a:	f7fe ff25 	bl	8001ad8 <HAL_RCC_GetPCLK1Freq>
 8002c8e:	2800      	cmp	r0, #0
 8002c90:	d04d      	beq.n	8002d2e <UART_SetConfig+0x12a>
 8002c92:	e02b      	b.n	8002cec <UART_SetConfig+0xe8>
 8002c94:	2808      	cmp	r0, #8
 8002c96:	d842      	bhi.n	8002d1e <UART_SetConfig+0x11a>
 8002c98:	f7fd fa32 	bl	8000100 <__gnu_thumb1_case_uqi>
 8002c9c:	41084145 	.word	0x41084145
 8002ca0:	41414105 	.word	0x41414105
 8002ca4:	09          	.byte	0x09
 8002ca5:	00          	.byte	0x00
 8002ca6:	f7fe fe25 	bl	80018f4 <HAL_RCC_GetSysClockFreq>
 8002caa:	e03e      	b.n	8002d2a <UART_SetConfig+0x126>
 8002cac:	4b2a      	ldr	r3, [pc, #168]	; (8002d58 <UART_SetConfig+0x154>)
 8002cae:	6a61      	ldr	r1, [r4, #36]	; 0x24
 8002cb0:	4a2a      	ldr	r2, [pc, #168]	; (8002d5c <UART_SetConfig+0x158>)
 8002cb2:	0049      	lsls	r1, r1, #1
 8002cb4:	5a89      	ldrh	r1, [r1, r2]
 8002cb6:	0018      	movs	r0, r3
 8002cb8:	f7fd fa2c 	bl	8000114 <__udivsi3>
 8002cbc:	6865      	ldr	r5, [r4, #4]
 8002cbe:	0040      	lsls	r0, r0, #1
 8002cc0:	086b      	lsrs	r3, r5, #1
 8002cc2:	18c0      	adds	r0, r0, r3
 8002cc4:	0029      	movs	r1, r5
 8002cc6:	f7fd fa25 	bl	8000114 <__udivsi3>
 8002cca:	0002      	movs	r2, r0
 8002ccc:	4b24      	ldr	r3, [pc, #144]	; (8002d60 <UART_SetConfig+0x15c>)
 8002cce:	3a10      	subs	r2, #16
 8002cd0:	429a      	cmp	r2, r3
 8002cd2:	d824      	bhi.n	8002d1e <UART_SetConfig+0x11a>
 8002cd4:	230f      	movs	r3, #15
 8002cd6:	0002      	movs	r2, r0
 8002cd8:	0700      	lsls	r0, r0, #28
 8002cda:	439a      	bics	r2, r3
 8002cdc:	b293      	uxth	r3, r2
 8002cde:	0f40      	lsrs	r0, r0, #29
 8002ce0:	6822      	ldr	r2, [r4, #0]
 8002ce2:	4303      	orrs	r3, r0
 8002ce4:	60d3      	str	r3, [r2, #12]
 8002ce6:	e022      	b.n	8002d2e <UART_SetConfig+0x12a>
 8002ce8:	2080      	movs	r0, #128	; 0x80
 8002cea:	0200      	lsls	r0, r0, #8
 8002cec:	6a62      	ldr	r2, [r4, #36]	; 0x24
 8002cee:	4b1b      	ldr	r3, [pc, #108]	; (8002d5c <UART_SetConfig+0x158>)
 8002cf0:	0052      	lsls	r2, r2, #1
 8002cf2:	5ad1      	ldrh	r1, [r2, r3]
 8002cf4:	f7fd fa0e 	bl	8000114 <__udivsi3>
 8002cf8:	6865      	ldr	r5, [r4, #4]
 8002cfa:	086b      	lsrs	r3, r5, #1
 8002cfc:	18c0      	adds	r0, r0, r3
 8002cfe:	0029      	movs	r1, r5
 8002d00:	f7fd fa08 	bl	8000114 <__udivsi3>
 8002d04:	0002      	movs	r2, r0
 8002d06:	4b16      	ldr	r3, [pc, #88]	; (8002d60 <UART_SetConfig+0x15c>)
 8002d08:	3a10      	subs	r2, #16
 8002d0a:	429a      	cmp	r2, r3
 8002d0c:	d807      	bhi.n	8002d1e <UART_SetConfig+0x11a>
 8002d0e:	6823      	ldr	r3, [r4, #0]
 8002d10:	60d8      	str	r0, [r3, #12]
 8002d12:	e00c      	b.n	8002d2e <UART_SetConfig+0x12a>
 8002d14:	f7fe fdee 	bl	80018f4 <HAL_RCC_GetSysClockFreq>
 8002d18:	e7b9      	b.n	8002c8e <UART_SetConfig+0x8a>
 8002d1a:	480f      	ldr	r0, [pc, #60]	; (8002d58 <UART_SetConfig+0x154>)
 8002d1c:	e7e6      	b.n	8002cec <UART_SetConfig+0xe8>
 8002d1e:	2001      	movs	r0, #1
 8002d20:	e006      	b.n	8002d30 <UART_SetConfig+0x12c>
 8002d22:	428b      	cmp	r3, r1
 8002d24:	d1b1      	bne.n	8002c8a <UART_SetConfig+0x86>
 8002d26:	f7fe fed7 	bl	8001ad8 <HAL_RCC_GetPCLK1Freq>
 8002d2a:	1e03      	subs	r3, r0, #0
 8002d2c:	d1bf      	bne.n	8002cae <UART_SetConfig+0xaa>
 8002d2e:	2000      	movs	r0, #0
 8002d30:	4b0c      	ldr	r3, [pc, #48]	; (8002d64 <UART_SetConfig+0x160>)
 8002d32:	66a3      	str	r3, [r4, #104]	; 0x68
 8002d34:	2300      	movs	r3, #0
 8002d36:	6763      	str	r3, [r4, #116]	; 0x74
 8002d38:	67a3      	str	r3, [r4, #120]	; 0x78
 8002d3a:	bd70      	pop	{r4, r5, r6, pc}
 8002d3c:	cfff69f3 	.word	0xcfff69f3
 8002d40:	ffffcfff 	.word	0xffffcfff
 8002d44:	11fff4ff 	.word	0x11fff4ff
 8002d48:	40013800 	.word	0x40013800
 8002d4c:	40021000 	.word	0x40021000
 8002d50:	0800402c 	.word	0x0800402c
 8002d54:	40004400 	.word	0x40004400
 8002d58:	00f42400 	.word	0x00f42400
 8002d5c:	08004030 	.word	0x08004030
 8002d60:	0000ffef 	.word	0x0000ffef
 8002d64:	00010001 	.word	0x00010001

08002d68 <UART_AdvFeatureConfig>:
 8002d68:	6a83      	ldr	r3, [r0, #40]	; 0x28
 8002d6a:	b530      	push	{r4, r5, lr}
 8002d6c:	071a      	lsls	r2, r3, #28
 8002d6e:	d506      	bpl.n	8002d7e <UART_AdvFeatureConfig+0x16>
 8002d70:	6801      	ldr	r1, [r0, #0]
 8002d72:	4c28      	ldr	r4, [pc, #160]	; (8002e14 <UART_AdvFeatureConfig+0xac>)
 8002d74:	684a      	ldr	r2, [r1, #4]
 8002d76:	4022      	ands	r2, r4
 8002d78:	6b84      	ldr	r4, [r0, #56]	; 0x38
 8002d7a:	4322      	orrs	r2, r4
 8002d7c:	604a      	str	r2, [r1, #4]
 8002d7e:	07da      	lsls	r2, r3, #31
 8002d80:	d506      	bpl.n	8002d90 <UART_AdvFeatureConfig+0x28>
 8002d82:	6801      	ldr	r1, [r0, #0]
 8002d84:	4c24      	ldr	r4, [pc, #144]	; (8002e18 <UART_AdvFeatureConfig+0xb0>)
 8002d86:	684a      	ldr	r2, [r1, #4]
 8002d88:	4022      	ands	r2, r4
 8002d8a:	6ac4      	ldr	r4, [r0, #44]	; 0x2c
 8002d8c:	4322      	orrs	r2, r4
 8002d8e:	604a      	str	r2, [r1, #4]
 8002d90:	079a      	lsls	r2, r3, #30
 8002d92:	d506      	bpl.n	8002da2 <UART_AdvFeatureConfig+0x3a>
 8002d94:	6801      	ldr	r1, [r0, #0]
 8002d96:	4c21      	ldr	r4, [pc, #132]	; (8002e1c <UART_AdvFeatureConfig+0xb4>)
 8002d98:	684a      	ldr	r2, [r1, #4]
 8002d9a:	4022      	ands	r2, r4
 8002d9c:	6b04      	ldr	r4, [r0, #48]	; 0x30
 8002d9e:	4322      	orrs	r2, r4
 8002da0:	604a      	str	r2, [r1, #4]
 8002da2:	075a      	lsls	r2, r3, #29
 8002da4:	d506      	bpl.n	8002db4 <UART_AdvFeatureConfig+0x4c>
 8002da6:	6801      	ldr	r1, [r0, #0]
 8002da8:	4c1d      	ldr	r4, [pc, #116]	; (8002e20 <UART_AdvFeatureConfig+0xb8>)
 8002daa:	684a      	ldr	r2, [r1, #4]
 8002dac:	4022      	ands	r2, r4
 8002dae:	6b44      	ldr	r4, [r0, #52]	; 0x34
 8002db0:	4322      	orrs	r2, r4
 8002db2:	604a      	str	r2, [r1, #4]
 8002db4:	06da      	lsls	r2, r3, #27
 8002db6:	d506      	bpl.n	8002dc6 <UART_AdvFeatureConfig+0x5e>
 8002db8:	6801      	ldr	r1, [r0, #0]
 8002dba:	4c1a      	ldr	r4, [pc, #104]	; (8002e24 <UART_AdvFeatureConfig+0xbc>)
 8002dbc:	688a      	ldr	r2, [r1, #8]
 8002dbe:	4022      	ands	r2, r4
 8002dc0:	6bc4      	ldr	r4, [r0, #60]	; 0x3c
 8002dc2:	4322      	orrs	r2, r4
 8002dc4:	608a      	str	r2, [r1, #8]
 8002dc6:	069a      	lsls	r2, r3, #26
 8002dc8:	d506      	bpl.n	8002dd8 <UART_AdvFeatureConfig+0x70>
 8002dca:	6801      	ldr	r1, [r0, #0]
 8002dcc:	4c16      	ldr	r4, [pc, #88]	; (8002e28 <UART_AdvFeatureConfig+0xc0>)
 8002dce:	688a      	ldr	r2, [r1, #8]
 8002dd0:	4022      	ands	r2, r4
 8002dd2:	6c04      	ldr	r4, [r0, #64]	; 0x40
 8002dd4:	4322      	orrs	r2, r4
 8002dd6:	608a      	str	r2, [r1, #8]
 8002dd8:	065a      	lsls	r2, r3, #25
 8002dda:	d510      	bpl.n	8002dfe <UART_AdvFeatureConfig+0x96>
 8002ddc:	6801      	ldr	r1, [r0, #0]
 8002dde:	4d13      	ldr	r5, [pc, #76]	; (8002e2c <UART_AdvFeatureConfig+0xc4>)
 8002de0:	684a      	ldr	r2, [r1, #4]
 8002de2:	6c44      	ldr	r4, [r0, #68]	; 0x44
 8002de4:	402a      	ands	r2, r5
 8002de6:	4322      	orrs	r2, r4
 8002de8:	604a      	str	r2, [r1, #4]
 8002dea:	2280      	movs	r2, #128	; 0x80
 8002dec:	0352      	lsls	r2, r2, #13
 8002dee:	4294      	cmp	r4, r2
 8002df0:	d105      	bne.n	8002dfe <UART_AdvFeatureConfig+0x96>
 8002df2:	684a      	ldr	r2, [r1, #4]
 8002df4:	4c0e      	ldr	r4, [pc, #56]	; (8002e30 <UART_AdvFeatureConfig+0xc8>)
 8002df6:	4022      	ands	r2, r4
 8002df8:	6c84      	ldr	r4, [r0, #72]	; 0x48
 8002dfa:	4322      	orrs	r2, r4
 8002dfc:	604a      	str	r2, [r1, #4]
 8002dfe:	061b      	lsls	r3, r3, #24
 8002e00:	d506      	bpl.n	8002e10 <UART_AdvFeatureConfig+0xa8>
 8002e02:	6802      	ldr	r2, [r0, #0]
 8002e04:	490b      	ldr	r1, [pc, #44]	; (8002e34 <UART_AdvFeatureConfig+0xcc>)
 8002e06:	6853      	ldr	r3, [r2, #4]
 8002e08:	400b      	ands	r3, r1
 8002e0a:	6cc1      	ldr	r1, [r0, #76]	; 0x4c
 8002e0c:	430b      	orrs	r3, r1
 8002e0e:	6053      	str	r3, [r2, #4]
 8002e10:	bd30      	pop	{r4, r5, pc}
 8002e12:	46c0      	nop			; (mov r8, r8)
 8002e14:	ffff7fff 	.word	0xffff7fff
 8002e18:	fffdffff 	.word	0xfffdffff
 8002e1c:	fffeffff 	.word	0xfffeffff
 8002e20:	fffbffff 	.word	0xfffbffff
 8002e24:	ffffefff 	.word	0xffffefff
 8002e28:	ffffdfff 	.word	0xffffdfff
 8002e2c:	ffefffff 	.word	0xffefffff
 8002e30:	ff9fffff 	.word	0xff9fffff
 8002e34:	fff7ffff 	.word	0xfff7ffff

08002e38 <UART_WaitOnFlagUntilTimeout>:
 8002e38:	b5f7      	push	{r0, r1, r2, r4, r5, r6, r7, lr}
 8002e3a:	0004      	movs	r4, r0
 8002e3c:	000d      	movs	r5, r1
 8002e3e:	0017      	movs	r7, r2
 8002e40:	9300      	str	r3, [sp, #0]
 8002e42:	6822      	ldr	r2, [r4, #0]
 8002e44:	69d3      	ldr	r3, [r2, #28]
 8002e46:	402b      	ands	r3, r5
 8002e48:	1b5b      	subs	r3, r3, r5
 8002e4a:	4259      	negs	r1, r3
 8002e4c:	414b      	adcs	r3, r1
 8002e4e:	42bb      	cmp	r3, r7
 8002e50:	d001      	beq.n	8002e56 <UART_WaitOnFlagUntilTimeout+0x1e>
 8002e52:	2000      	movs	r0, #0
 8002e54:	e027      	b.n	8002ea6 <UART_WaitOnFlagUntilTimeout+0x6e>
 8002e56:	9b08      	ldr	r3, [sp, #32]
 8002e58:	3301      	adds	r3, #1
 8002e5a:	d0f3      	beq.n	8002e44 <UART_WaitOnFlagUntilTimeout+0xc>
 8002e5c:	f7fd fed0 	bl	8000c00 <HAL_GetTick>
 8002e60:	9b00      	ldr	r3, [sp, #0]
 8002e62:	1ac0      	subs	r0, r0, r3
 8002e64:	9b08      	ldr	r3, [sp, #32]
 8002e66:	4298      	cmp	r0, r3
 8002e68:	d82e      	bhi.n	8002ec8 <UART_WaitOnFlagUntilTimeout+0x90>
 8002e6a:	2b00      	cmp	r3, #0
 8002e6c:	d02c      	beq.n	8002ec8 <UART_WaitOnFlagUntilTimeout+0x90>
 8002e6e:	2104      	movs	r1, #4
 8002e70:	6823      	ldr	r3, [r4, #0]
 8002e72:	681a      	ldr	r2, [r3, #0]
 8002e74:	420a      	tst	r2, r1
 8002e76:	d0e4      	beq.n	8002e42 <UART_WaitOnFlagUntilTimeout+0xa>
 8002e78:	002a      	movs	r2, r5
 8002e7a:	313c      	adds	r1, #60	; 0x3c
 8002e7c:	3a40      	subs	r2, #64	; 0x40
 8002e7e:	438a      	bics	r2, r1
 8002e80:	d0df      	beq.n	8002e42 <UART_WaitOnFlagUntilTimeout+0xa>
 8002e82:	69da      	ldr	r2, [r3, #28]
 8002e84:	2608      	movs	r6, #8
 8002e86:	0011      	movs	r1, r2
 8002e88:	4031      	ands	r1, r6
 8002e8a:	9101      	str	r1, [sp, #4]
 8002e8c:	4232      	tst	r2, r6
 8002e8e:	d00b      	beq.n	8002ea8 <UART_WaitOnFlagUntilTimeout+0x70>
 8002e90:	0020      	movs	r0, r4
 8002e92:	621e      	str	r6, [r3, #32]
 8002e94:	f7ff fe84 	bl	8002ba0 <UART_EndRxTransfer>
 8002e98:	0023      	movs	r3, r4
 8002e9a:	3390      	adds	r3, #144	; 0x90
 8002e9c:	601e      	str	r6, [r3, #0]
 8002e9e:	2300      	movs	r3, #0
 8002ea0:	2001      	movs	r0, #1
 8002ea2:	3484      	adds	r4, #132	; 0x84
 8002ea4:	7023      	strb	r3, [r4, #0]
 8002ea6:	bdfe      	pop	{r1, r2, r3, r4, r5, r6, r7, pc}
 8002ea8:	2280      	movs	r2, #128	; 0x80
 8002eaa:	69d9      	ldr	r1, [r3, #28]
 8002eac:	0112      	lsls	r2, r2, #4
 8002eae:	4211      	tst	r1, r2
 8002eb0:	d0c7      	beq.n	8002e42 <UART_WaitOnFlagUntilTimeout+0xa>
 8002eb2:	621a      	str	r2, [r3, #32]
 8002eb4:	0020      	movs	r0, r4
 8002eb6:	f7ff fe73 	bl	8002ba0 <UART_EndRxTransfer>
 8002eba:	0023      	movs	r3, r4
 8002ebc:	2220      	movs	r2, #32
 8002ebe:	3390      	adds	r3, #144	; 0x90
 8002ec0:	601a      	str	r2, [r3, #0]
 8002ec2:	9b01      	ldr	r3, [sp, #4]
 8002ec4:	3484      	adds	r4, #132	; 0x84
 8002ec6:	7023      	strb	r3, [r4, #0]
 8002ec8:	2003      	movs	r0, #3
 8002eca:	e7ec      	b.n	8002ea6 <UART_WaitOnFlagUntilTimeout+0x6e>

08002ecc <UART_CheckIdleState>:
 8002ecc:	0003      	movs	r3, r0
 8002ece:	b573      	push	{r0, r1, r4, r5, r6, lr}
 8002ed0:	2600      	movs	r6, #0
 8002ed2:	0004      	movs	r4, r0
 8002ed4:	3390      	adds	r3, #144	; 0x90
 8002ed6:	601e      	str	r6, [r3, #0]
 8002ed8:	f7fd fe92 	bl	8000c00 <HAL_GetTick>
 8002edc:	6823      	ldr	r3, [r4, #0]
 8002ede:	0005      	movs	r5, r0
 8002ee0:	681b      	ldr	r3, [r3, #0]
 8002ee2:	071b      	lsls	r3, r3, #28
 8002ee4:	d51f      	bpl.n	8002f26 <UART_CheckIdleState+0x5a>
 8002ee6:	2180      	movs	r1, #128	; 0x80
 8002ee8:	4b28      	ldr	r3, [pc, #160]	; (8002f8c <UART_CheckIdleState+0xc0>)
 8002eea:	0032      	movs	r2, r6
 8002eec:	9300      	str	r3, [sp, #0]
 8002eee:	0389      	lsls	r1, r1, #14
 8002ef0:	0003      	movs	r3, r0
 8002ef2:	0020      	movs	r0, r4
 8002ef4:	f7ff ffa0 	bl	8002e38 <UART_WaitOnFlagUntilTimeout>
 8002ef8:	42b0      	cmp	r0, r6
 8002efa:	d014      	beq.n	8002f26 <UART_CheckIdleState+0x5a>
 8002efc:	f3ef 8110 	mrs	r1, PRIMASK
 8002f00:	2301      	movs	r3, #1
 8002f02:	f383 8810 	msr	PRIMASK, r3
 8002f06:	2080      	movs	r0, #128	; 0x80
 8002f08:	6822      	ldr	r2, [r4, #0]
 8002f0a:	6813      	ldr	r3, [r2, #0]
 8002f0c:	4383      	bics	r3, r0
 8002f0e:	6013      	str	r3, [r2, #0]
 8002f10:	f381 8810 	msr	PRIMASK, r1
 8002f14:	0023      	movs	r3, r4
 8002f16:	2220      	movs	r2, #32
 8002f18:	3388      	adds	r3, #136	; 0x88
 8002f1a:	601a      	str	r2, [r3, #0]
 8002f1c:	2003      	movs	r0, #3
 8002f1e:	2300      	movs	r3, #0
 8002f20:	3484      	adds	r4, #132	; 0x84
 8002f22:	7023      	strb	r3, [r4, #0]
 8002f24:	bd76      	pop	{r1, r2, r4, r5, r6, pc}
 8002f26:	0026      	movs	r6, r4
 8002f28:	6823      	ldr	r3, [r4, #0]
 8002f2a:	368c      	adds	r6, #140	; 0x8c
 8002f2c:	681b      	ldr	r3, [r3, #0]
 8002f2e:	075b      	lsls	r3, r3, #29
 8002f30:	d523      	bpl.n	8002f7a <UART_CheckIdleState+0xae>
 8002f32:	2180      	movs	r1, #128	; 0x80
 8002f34:	4b15      	ldr	r3, [pc, #84]	; (8002f8c <UART_CheckIdleState+0xc0>)
 8002f36:	2200      	movs	r2, #0
 8002f38:	9300      	str	r3, [sp, #0]
 8002f3a:	0020      	movs	r0, r4
 8002f3c:	002b      	movs	r3, r5
 8002f3e:	03c9      	lsls	r1, r1, #15
 8002f40:	f7ff ff7a 	bl	8002e38 <UART_WaitOnFlagUntilTimeout>
 8002f44:	2800      	cmp	r0, #0
 8002f46:	d018      	beq.n	8002f7a <UART_CheckIdleState+0xae>
 8002f48:	f3ef 8010 	mrs	r0, PRIMASK
 8002f4c:	2201      	movs	r2, #1
 8002f4e:	f382 8810 	msr	PRIMASK, r2
 8002f52:	6821      	ldr	r1, [r4, #0]
 8002f54:	4d0e      	ldr	r5, [pc, #56]	; (8002f90 <UART_CheckIdleState+0xc4>)
 8002f56:	680b      	ldr	r3, [r1, #0]
 8002f58:	402b      	ands	r3, r5
 8002f5a:	600b      	str	r3, [r1, #0]
 8002f5c:	f380 8810 	msr	PRIMASK, r0
 8002f60:	f3ef 8010 	mrs	r0, PRIMASK
 8002f64:	f382 8810 	msr	PRIMASK, r2
 8002f68:	6821      	ldr	r1, [r4, #0]
 8002f6a:	688b      	ldr	r3, [r1, #8]
 8002f6c:	4393      	bics	r3, r2
 8002f6e:	608b      	str	r3, [r1, #8]
 8002f70:	f380 8810 	msr	PRIMASK, r0
 8002f74:	2320      	movs	r3, #32
 8002f76:	6033      	str	r3, [r6, #0]
 8002f78:	e7d0      	b.n	8002f1c <UART_CheckIdleState+0x50>
 8002f7a:	0023      	movs	r3, r4
 8002f7c:	2220      	movs	r2, #32
 8002f7e:	2000      	movs	r0, #0
 8002f80:	3388      	adds	r3, #136	; 0x88
 8002f82:	601a      	str	r2, [r3, #0]
 8002f84:	6032      	str	r2, [r6, #0]
 8002f86:	66e0      	str	r0, [r4, #108]	; 0x6c
 8002f88:	6720      	str	r0, [r4, #112]	; 0x70
 8002f8a:	e7c8      	b.n	8002f1e <UART_CheckIdleState+0x52>
 8002f8c:	01ffffff 	.word	0x01ffffff
 8002f90:	fffffedf 	.word	0xfffffedf

08002f94 <HAL_HalfDuplex_Init>:
 8002f94:	b570      	push	{r4, r5, r6, lr}
 8002f96:	1e04      	subs	r4, r0, #0
 8002f98:	d101      	bne.n	8002f9e <HAL_HalfDuplex_Init+0xa>
 8002f9a:	2001      	movs	r0, #1
 8002f9c:	bd70      	pop	{r4, r5, r6, pc}
 8002f9e:	0005      	movs	r5, r0
 8002fa0:	3588      	adds	r5, #136	; 0x88
 8002fa2:	682b      	ldr	r3, [r5, #0]
 8002fa4:	2b00      	cmp	r3, #0
 8002fa6:	d104      	bne.n	8002fb2 <HAL_HalfDuplex_Init+0x1e>
 8002fa8:	0002      	movs	r2, r0
 8002faa:	3284      	adds	r2, #132	; 0x84
 8002fac:	7013      	strb	r3, [r2, #0]
 8002fae:	f7fd fd73 	bl	8000a98 <HAL_UART_MspInit>
 8002fb2:	2324      	movs	r3, #36	; 0x24
 8002fb4:	2101      	movs	r1, #1
 8002fb6:	6822      	ldr	r2, [r4, #0]
 8002fb8:	602b      	str	r3, [r5, #0]
 8002fba:	6813      	ldr	r3, [r2, #0]
 8002fbc:	438b      	bics	r3, r1
 8002fbe:	6013      	str	r3, [r2, #0]
 8002fc0:	6aa3      	ldr	r3, [r4, #40]	; 0x28
 8002fc2:	2b00      	cmp	r3, #0
 8002fc4:	d002      	beq.n	8002fcc <HAL_HalfDuplex_Init+0x38>
 8002fc6:	0020      	movs	r0, r4
 8002fc8:	f7ff fece 	bl	8002d68 <UART_AdvFeatureConfig>
 8002fcc:	0020      	movs	r0, r4
 8002fce:	f7ff fe19 	bl	8002c04 <UART_SetConfig>
 8002fd2:	2801      	cmp	r0, #1
 8002fd4:	d0e1      	beq.n	8002f9a <HAL_HalfDuplex_Init+0x6>
 8002fd6:	6823      	ldr	r3, [r4, #0]
 8002fd8:	4909      	ldr	r1, [pc, #36]	; (8003000 <HAL_HalfDuplex_Init+0x6c>)
 8002fda:	685a      	ldr	r2, [r3, #4]
 8002fdc:	0020      	movs	r0, r4
 8002fde:	400a      	ands	r2, r1
 8002fe0:	2122      	movs	r1, #34	; 0x22
 8002fe2:	605a      	str	r2, [r3, #4]
 8002fe4:	689a      	ldr	r2, [r3, #8]
 8002fe6:	438a      	bics	r2, r1
 8002fe8:	609a      	str	r2, [r3, #8]
 8002fea:	2208      	movs	r2, #8
 8002fec:	6899      	ldr	r1, [r3, #8]
 8002fee:	430a      	orrs	r2, r1
 8002ff0:	609a      	str	r2, [r3, #8]
 8002ff2:	2201      	movs	r2, #1
 8002ff4:	6819      	ldr	r1, [r3, #0]
 8002ff6:	430a      	orrs	r2, r1
 8002ff8:	601a      	str	r2, [r3, #0]
 8002ffa:	f7ff ff67 	bl	8002ecc <UART_CheckIdleState>
 8002ffe:	e7cd      	b.n	8002f9c <HAL_HalfDuplex_Init+0x8>
 8003000:	ffffb7ff 	.word	0xffffb7ff

08003004 <UARTEx_SetNbDataToProcess>:
 8003004:	b5f7      	push	{r0, r1, r2, r4, r5, r6, r7, lr}
 8003006:	0007      	movs	r7, r0
 8003008:	6e43      	ldr	r3, [r0, #100]	; 0x64
 800300a:	0004      	movs	r4, r0
 800300c:	376a      	adds	r7, #106	; 0x6a
 800300e:	2b00      	cmp	r3, #0
 8003010:	d104      	bne.n	800301c <UARTEx_SetNbDataToProcess+0x18>
 8003012:	2001      	movs	r0, #1
 8003014:	8038      	strh	r0, [r7, #0]
 8003016:	3468      	adds	r4, #104	; 0x68
 8003018:	8020      	strh	r0, [r4, #0]
 800301a:	bdf7      	pop	{r0, r1, r2, r4, r5, r6, r7, pc}
 800301c:	6803      	ldr	r3, [r0, #0]
 800301e:	4e0b      	ldr	r6, [pc, #44]	; (800304c <UARTEx_SetNbDataToProcess+0x48>)
 8003020:	689a      	ldr	r2, [r3, #8]
 8003022:	689b      	ldr	r3, [r3, #8]
 8003024:	4d0a      	ldr	r5, [pc, #40]	; (8003050 <UARTEx_SetNbDataToProcess+0x4c>)
 8003026:	0f5b      	lsrs	r3, r3, #29
 8003028:	5cf0      	ldrb	r0, [r6, r3]
 800302a:	5ce9      	ldrb	r1, [r5, r3]
 800302c:	00c0      	lsls	r0, r0, #3
 800302e:	9201      	str	r2, [sp, #4]
 8003030:	f7fd f8fa 	bl	8000228 <__divsi3>
 8003034:	9b01      	ldr	r3, [sp, #4]
 8003036:	8038      	strh	r0, [r7, #0]
 8003038:	011b      	lsls	r3, r3, #4
 800303a:	0f5b      	lsrs	r3, r3, #29
 800303c:	5cf0      	ldrb	r0, [r6, r3]
 800303e:	5ce9      	ldrb	r1, [r5, r3]
 8003040:	00c0      	lsls	r0, r0, #3
 8003042:	f7fd f8f1 	bl	8000228 <__divsi3>
 8003046:	b280      	uxth	r0, r0
 8003048:	e7e5      	b.n	8003016 <UARTEx_SetNbDataToProcess+0x12>
 800304a:	46c0      	nop			; (mov r8, r8)
 800304c:	08004050 	.word	0x08004050
 8003050:	08004048 	.word	0x08004048

08003054 <HAL_UARTEx_DisableFifoMode>:
 8003054:	b570      	push	{r4, r5, r6, lr}
 8003056:	0004      	movs	r4, r0
 8003058:	3484      	adds	r4, #132	; 0x84
 800305a:	7822      	ldrb	r2, [r4, #0]
 800305c:	0003      	movs	r3, r0
 800305e:	2002      	movs	r0, #2
 8003060:	2a01      	cmp	r2, #1
 8003062:	d011      	beq.n	8003088 <HAL_UARTEx_DisableFifoMode+0x34>
 8003064:	001d      	movs	r5, r3
 8003066:	2224      	movs	r2, #36	; 0x24
 8003068:	2601      	movs	r6, #1
 800306a:	3588      	adds	r5, #136	; 0x88
 800306c:	602a      	str	r2, [r5, #0]
 800306e:	681a      	ldr	r2, [r3, #0]
 8003070:	6811      	ldr	r1, [r2, #0]
 8003072:	6810      	ldr	r0, [r2, #0]
 8003074:	43b0      	bics	r0, r6
 8003076:	6010      	str	r0, [r2, #0]
 8003078:	4804      	ldr	r0, [pc, #16]	; (800308c <HAL_UARTEx_DisableFifoMode+0x38>)
 800307a:	4001      	ands	r1, r0
 800307c:	2000      	movs	r0, #0
 800307e:	6658      	str	r0, [r3, #100]	; 0x64
 8003080:	2320      	movs	r3, #32
 8003082:	6011      	str	r1, [r2, #0]
 8003084:	602b      	str	r3, [r5, #0]
 8003086:	7020      	strb	r0, [r4, #0]
 8003088:	bd70      	pop	{r4, r5, r6, pc}
 800308a:	46c0      	nop			; (mov r8, r8)
 800308c:	dfffffff 	.word	0xdfffffff

08003090 <HAL_UARTEx_SetTxFifoThreshold>:
 8003090:	b5f8      	push	{r3, r4, r5, r6, r7, lr}
 8003092:	0005      	movs	r5, r0
 8003094:	3584      	adds	r5, #132	; 0x84
 8003096:	000b      	movs	r3, r1
 8003098:	7829      	ldrb	r1, [r5, #0]
 800309a:	2202      	movs	r2, #2
 800309c:	2901      	cmp	r1, #1
 800309e:	d015      	beq.n	80030cc <HAL_UARTEx_SetTxFifoThreshold+0x3c>
 80030a0:	0006      	movs	r6, r0
 80030a2:	2101      	movs	r1, #1
 80030a4:	6804      	ldr	r4, [r0, #0]
 80030a6:	3688      	adds	r6, #136	; 0x88
 80030a8:	3222      	adds	r2, #34	; 0x22
 80030aa:	6032      	str	r2, [r6, #0]
 80030ac:	6827      	ldr	r7, [r4, #0]
 80030ae:	6822      	ldr	r2, [r4, #0]
 80030b0:	438a      	bics	r2, r1
 80030b2:	6022      	str	r2, [r4, #0]
 80030b4:	68a1      	ldr	r1, [r4, #8]
 80030b6:	00c9      	lsls	r1, r1, #3
 80030b8:	08c9      	lsrs	r1, r1, #3
 80030ba:	4319      	orrs	r1, r3
 80030bc:	60a1      	str	r1, [r4, #8]
 80030be:	f7ff ffa1 	bl	8003004 <UARTEx_SetNbDataToProcess>
 80030c2:	2320      	movs	r3, #32
 80030c4:	2200      	movs	r2, #0
 80030c6:	6027      	str	r7, [r4, #0]
 80030c8:	6033      	str	r3, [r6, #0]
 80030ca:	702a      	strb	r2, [r5, #0]
 80030cc:	0010      	movs	r0, r2
 80030ce:	bdf8      	pop	{r3, r4, r5, r6, r7, pc}

080030d0 <HAL_UARTEx_SetRxFifoThreshold>:
 80030d0:	b5f8      	push	{r3, r4, r5, r6, r7, lr}
 80030d2:	0005      	movs	r5, r0
 80030d4:	3584      	adds	r5, #132	; 0x84
 80030d6:	000a      	movs	r2, r1
 80030d8:	7829      	ldrb	r1, [r5, #0]
 80030da:	2302      	movs	r3, #2
 80030dc:	2901      	cmp	r1, #1
 80030de:	d015      	beq.n	800310c <HAL_UARTEx_SetRxFifoThreshold+0x3c>
 80030e0:	0006      	movs	r6, r0
 80030e2:	2101      	movs	r1, #1
 80030e4:	6804      	ldr	r4, [r0, #0]
 80030e6:	3688      	adds	r6, #136	; 0x88
 80030e8:	3322      	adds	r3, #34	; 0x22
 80030ea:	6033      	str	r3, [r6, #0]
 80030ec:	6827      	ldr	r7, [r4, #0]
 80030ee:	6823      	ldr	r3, [r4, #0]
 80030f0:	438b      	bics	r3, r1
 80030f2:	6023      	str	r3, [r4, #0]
 80030f4:	68a1      	ldr	r1, [r4, #8]
 80030f6:	4b06      	ldr	r3, [pc, #24]	; (8003110 <HAL_UARTEx_SetRxFifoThreshold+0x40>)
 80030f8:	4019      	ands	r1, r3
 80030fa:	4311      	orrs	r1, r2
 80030fc:	60a1      	str	r1, [r4, #8]
 80030fe:	f7ff ff81 	bl	8003004 <UARTEx_SetNbDataToProcess>
 8003102:	2320      	movs	r3, #32
 8003104:	6027      	str	r7, [r4, #0]
 8003106:	6033      	str	r3, [r6, #0]
 8003108:	2300      	movs	r3, #0
 800310a:	702b      	strb	r3, [r5, #0]
 800310c:	0018      	movs	r0, r3
 800310e:	bdf8      	pop	{r3, r4, r5, r6, r7, pc}
 8003110:	f1ffffff 	.word	0xf1ffffff

08003114 <nrf_read_reg>:
 8003114:	b573      	push	{r0, r1, r4, r5, r6, lr}
 8003116:	466b      	mov	r3, sp
 8003118:	4e0e      	ldr	r6, [pc, #56]	; (8003154 <nrf_read_reg+0x40>)
 800311a:	7198      	strb	r0, [r3, #6]
 800311c:	2200      	movs	r2, #0
 800311e:	0030      	movs	r0, r6
 8003120:	2101      	movs	r1, #1
 8003122:	1d9d      	adds	r5, r3, #6
 8003124:	f7fe f99a 	bl	800145c <HAL_GPIO_WritePin>
 8003128:	4c0b      	ldr	r4, [pc, #44]	; (8003158 <nrf_read_reg+0x44>)
 800312a:	0029      	movs	r1, r5
 800312c:	2364      	movs	r3, #100	; 0x64
 800312e:	2201      	movs	r2, #1
 8003130:	0020      	movs	r0, r4
 8003132:	f7fe ff2f 	bl	8001f94 <HAL_SPI_Transmit>
 8003136:	466b      	mov	r3, sp
 8003138:	1ddd      	adds	r5, r3, #7
 800313a:	0029      	movs	r1, r5
 800313c:	2364      	movs	r3, #100	; 0x64
 800313e:	2201      	movs	r2, #1
 8003140:	0020      	movs	r0, r4
 8003142:	f7ff f8f7 	bl	8002334 <HAL_SPI_Receive>
 8003146:	2201      	movs	r2, #1
 8003148:	0030      	movs	r0, r6
 800314a:	0011      	movs	r1, r2
 800314c:	f7fe f986 	bl	800145c <HAL_GPIO_WritePin>
 8003150:	7828      	ldrb	r0, [r5, #0]
 8003152:	bd76      	pop	{r1, r2, r4, r5, r6, pc}
 8003154:	50000400 	.word	0x50000400
 8003158:	20000094 	.word	0x20000094

0800315c <nrf_write_reg>:
 800315c:	b513      	push	{r0, r1, r4, lr}
 800315e:	2320      	movs	r3, #32
 8003160:	466a      	mov	r2, sp
 8003162:	4c0b      	ldr	r4, [pc, #44]	; (8003190 <nrf_write_reg+0x34>)
 8003164:	4303      	orrs	r3, r0
 8003166:	7113      	strb	r3, [r2, #4]
 8003168:	0020      	movs	r0, r4
 800316a:	7151      	strb	r1, [r2, #5]
 800316c:	2200      	movs	r2, #0
 800316e:	2101      	movs	r1, #1
 8003170:	f7fe f974 	bl	800145c <HAL_GPIO_WritePin>
 8003174:	23fa      	movs	r3, #250	; 0xfa
 8003176:	a901      	add	r1, sp, #4
 8003178:	009b      	lsls	r3, r3, #2
 800317a:	2202      	movs	r2, #2
 800317c:	4805      	ldr	r0, [pc, #20]	; (8003194 <nrf_write_reg+0x38>)
 800317e:	f7fe ff09 	bl	8001f94 <HAL_SPI_Transmit>
 8003182:	2201      	movs	r2, #1
 8003184:	0020      	movs	r0, r4
 8003186:	0011      	movs	r1, r2
 8003188:	f7fe f968 	bl	800145c <HAL_GPIO_WritePin>
 800318c:	bd13      	pop	{r0, r1, r4, pc}
 800318e:	46c0      	nop			; (mov r8, r8)
 8003190:	50000400 	.word	0x50000400
 8003194:	20000094 	.word	0x20000094

08003198 <nrf_write_reg_multi>:
 8003198:	2320      	movs	r3, #32
 800319a:	b5f0      	push	{r4, r5, r6, r7, lr}
 800319c:	27fa      	movs	r7, #250	; 0xfa
 800319e:	b085      	sub	sp, #20
 80031a0:	4e10      	ldr	r6, [pc, #64]	; (80031e4 <nrf_write_reg_multi+0x4c>)
 80031a2:	ac03      	add	r4, sp, #12
 80031a4:	4303      	orrs	r3, r0
 80031a6:	000d      	movs	r5, r1
 80031a8:	0030      	movs	r0, r6
 80031aa:	9201      	str	r2, [sp, #4]
 80031ac:	7023      	strb	r3, [r4, #0]
 80031ae:	2200      	movs	r2, #0
 80031b0:	2101      	movs	r1, #1
 80031b2:	f7fe f953 	bl	800145c <HAL_GPIO_WritePin>
 80031b6:	00bf      	lsls	r7, r7, #2
 80031b8:	480b      	ldr	r0, [pc, #44]	; (80031e8 <nrf_write_reg_multi+0x50>)
 80031ba:	003b      	movs	r3, r7
 80031bc:	0021      	movs	r1, r4
 80031be:	2202      	movs	r2, #2
 80031c0:	0004      	movs	r4, r0
 80031c2:	f7fe fee7 	bl	8001f94 <HAL_SPI_Transmit>
 80031c6:	466b      	mov	r3, sp
 80031c8:	0029      	movs	r1, r5
 80031ca:	889a      	ldrh	r2, [r3, #4]
 80031cc:	0020      	movs	r0, r4
 80031ce:	003b      	movs	r3, r7
 80031d0:	f7fe fee0 	bl	8001f94 <HAL_SPI_Transmit>
 80031d4:	2201      	movs	r2, #1
 80031d6:	0030      	movs	r0, r6
 80031d8:	0011      	movs	r1, r2
 80031da:	f7fe f93f 	bl	800145c <HAL_GPIO_WritePin>
 80031de:	b005      	add	sp, #20
 80031e0:	bdf0      	pop	{r4, r5, r6, r7, pc}
 80031e2:	46c0      	nop			; (mov r8, r8)
 80031e4:	50000400 	.word	0x50000400
 80031e8:	20000094 	.word	0x20000094

080031ec <nrf_send_cmd>:
 80031ec:	b537      	push	{r0, r1, r2, r4, r5, lr}
 80031ee:	466b      	mov	r3, sp
 80031f0:	4c09      	ldr	r4, [pc, #36]	; (8003218 <nrf_send_cmd+0x2c>)
 80031f2:	1ddd      	adds	r5, r3, #7
 80031f4:	71d8      	strb	r0, [r3, #7]
 80031f6:	2200      	movs	r2, #0
 80031f8:	0020      	movs	r0, r4
 80031fa:	2101      	movs	r1, #1
 80031fc:	f7fe f92e 	bl	800145c <HAL_GPIO_WritePin>
 8003200:	0029      	movs	r1, r5
 8003202:	2364      	movs	r3, #100	; 0x64
 8003204:	2201      	movs	r2, #1
 8003206:	4805      	ldr	r0, [pc, #20]	; (800321c <nrf_send_cmd+0x30>)
 8003208:	f7fe fec4 	bl	8001f94 <HAL_SPI_Transmit>
 800320c:	2201      	movs	r2, #1
 800320e:	0020      	movs	r0, r4
 8003210:	0011      	movs	r1, r2
 8003212:	f7fe f923 	bl	800145c <HAL_GPIO_WritePin>
 8003216:	bd37      	pop	{r0, r1, r2, r4, r5, pc}
 8003218:	50000400 	.word	0x50000400
 800321c:	20000094 	.word	0x20000094

08003220 <nrf_init>:
 8003220:	2180      	movs	r1, #128	; 0x80
 8003222:	20a0      	movs	r0, #160	; 0xa0
 8003224:	b510      	push	{r4, lr}
 8003226:	2200      	movs	r2, #0
 8003228:	0109      	lsls	r1, r1, #4
 800322a:	05c0      	lsls	r0, r0, #23
 800322c:	f7fe f916 	bl	800145c <HAL_GPIO_WritePin>
 8003230:	2100      	movs	r1, #0
 8003232:	0008      	movs	r0, r1
 8003234:	f7ff ff92 	bl	800315c <nrf_write_reg>
 8003238:	2100      	movs	r1, #0
 800323a:	2001      	movs	r0, #1
 800323c:	f7ff ff8e 	bl	800315c <nrf_write_reg>
 8003240:	2100      	movs	r1, #0
 8003242:	2002      	movs	r0, #2
 8003244:	f7ff ff8a 	bl	800315c <nrf_write_reg>
 8003248:	2103      	movs	r1, #3
 800324a:	0008      	movs	r0, r1
 800324c:	f7ff ff86 	bl	800315c <nrf_write_reg>
 8003250:	2100      	movs	r1, #0
 8003252:	2004      	movs	r0, #4
 8003254:	f7ff ff82 	bl	800315c <nrf_write_reg>
 8003258:	2100      	movs	r1, #0
 800325a:	2005      	movs	r0, #5
 800325c:	f7ff ff7e 	bl	800315c <nrf_write_reg>
 8003260:	210e      	movs	r1, #14
 8003262:	2006      	movs	r0, #6
 8003264:	f7ff ff7a 	bl	800315c <nrf_write_reg>
 8003268:	2200      	movs	r2, #0
 800326a:	2101      	movs	r1, #1
 800326c:	4801      	ldr	r0, [pc, #4]	; (8003274 <nrf_init+0x54>)
 800326e:	f7fe f8f5 	bl	800145c <HAL_GPIO_WritePin>
 8003272:	bd10      	pop	{r4, pc}
 8003274:	50000400 	.word	0x50000400

08003278 <nrf_tx_mode>:
 8003278:	b5f8      	push	{r3, r4, r5, r6, r7, lr}
 800327a:	2580      	movs	r5, #128	; 0x80
 800327c:	24a0      	movs	r4, #160	; 0xa0
 800327e:	000f      	movs	r7, r1
 8003280:	0006      	movs	r6, r0
 8003282:	012d      	lsls	r5, r5, #4
 8003284:	05e4      	lsls	r4, r4, #23
 8003286:	0029      	movs	r1, r5
 8003288:	2200      	movs	r2, #0
 800328a:	0020      	movs	r0, r4
 800328c:	f7fe f8e6 	bl	800145c <HAL_GPIO_WritePin>
 8003290:	0039      	movs	r1, r7
 8003292:	2005      	movs	r0, #5
 8003294:	f7ff ff62 	bl	800315c <nrf_write_reg>
 8003298:	0031      	movs	r1, r6
 800329a:	2205      	movs	r2, #5
 800329c:	2010      	movs	r0, #16
 800329e:	f7ff ff7b 	bl	8003198 <nrf_write_reg_multi>
 80032a2:	2000      	movs	r0, #0
 80032a4:	f7ff ff36 	bl	8003114 <nrf_read_reg>
 80032a8:	2102      	movs	r1, #2
 80032aa:	4301      	orrs	r1, r0
 80032ac:	b2c9      	uxtb	r1, r1
 80032ae:	2000      	movs	r0, #0
 80032b0:	f7ff ff54 	bl	800315c <nrf_write_reg>
 80032b4:	0029      	movs	r1, r5
 80032b6:	2201      	movs	r2, #1
 80032b8:	0020      	movs	r0, r4
 80032ba:	f7fe f8cf 	bl	800145c <HAL_GPIO_WritePin>
 80032be:	bdf8      	pop	{r3, r4, r5, r6, r7, pc}

080032c0 <nrf_transmit>:
 80032c0:	b5f7      	push	{r0, r1, r2, r4, r5, r6, r7, lr}
 80032c2:	2400      	movs	r4, #0
 80032c4:	466b      	mov	r3, sp
 80032c6:	0007      	movs	r7, r0
 80032c8:	0022      	movs	r2, r4
 80032ca:	2101      	movs	r1, #1
 80032cc:	4815      	ldr	r0, [pc, #84]	; (8003324 <nrf_transmit+0x64>)
 80032ce:	1ddd      	adds	r5, r3, #7
 80032d0:	71dc      	strb	r4, [r3, #7]
 80032d2:	f7fe f8c3 	bl	800145c <HAL_GPIO_WritePin>
 80032d6:	23a0      	movs	r3, #160	; 0xa0
 80032d8:	4e13      	ldr	r6, [pc, #76]	; (8003328 <nrf_transmit+0x68>)
 80032da:	2201      	movs	r2, #1
 80032dc:	0029      	movs	r1, r5
 80032de:	702b      	strb	r3, [r5, #0]
 80032e0:	0030      	movs	r0, r6
 80032e2:	3b3c      	subs	r3, #60	; 0x3c
 80032e4:	f7fe fe56 	bl	8001f94 <HAL_SPI_Transmit>
 80032e8:	23fa      	movs	r3, #250	; 0xfa
 80032ea:	2220      	movs	r2, #32
 80032ec:	009b      	lsls	r3, r3, #2
 80032ee:	0039      	movs	r1, r7
 80032f0:	0030      	movs	r0, r6
 80032f2:	f7fe fe4f 	bl	8001f94 <HAL_SPI_Transmit>
 80032f6:	2201      	movs	r2, #1
 80032f8:	480a      	ldr	r0, [pc, #40]	; (8003324 <nrf_transmit+0x64>)
 80032fa:	0011      	movs	r1, r2
 80032fc:	f7fe f8ae 	bl	800145c <HAL_GPIO_WritePin>
 8003300:	2001      	movs	r0, #1
 8003302:	f7fd fc83 	bl	8000c0c <HAL_Delay>
 8003306:	2017      	movs	r0, #23
 8003308:	f7ff ff04 	bl	8003114 <nrf_read_reg>
 800330c:	2318      	movs	r3, #24
 800330e:	4003      	ands	r3, r0
 8003310:	0020      	movs	r0, r4
 8003312:	2b10      	cmp	r3, #16
 8003314:	d104      	bne.n	8003320 <nrf_transmit+0x60>
 8003316:	30e1      	adds	r0, #225	; 0xe1
 8003318:	7028      	strb	r0, [r5, #0]
 800331a:	f7ff ff67 	bl	80031ec <nrf_send_cmd>
 800331e:	2001      	movs	r0, #1
 8003320:	bdfe      	pop	{r1, r2, r3, r4, r5, r6, r7, pc}
 8003322:	46c0      	nop			; (mov r8, r8)
 8003324:	50000400 	.word	0x50000400
 8003328:	20000094 	.word	0x20000094

0800332c <DEV_SPI_WRite>:
 800332c:	b507      	push	{r0, r1, r2, lr}
 800332e:	466b      	mov	r3, sp
 8003330:	1dd9      	adds	r1, r3, #7
 8003332:	23fa      	movs	r3, #250	; 0xfa
 8003334:	7008      	strb	r0, [r1, #0]
 8003336:	2201      	movs	r2, #1
 8003338:	4802      	ldr	r0, [pc, #8]	; (8003344 <DEV_SPI_WRite+0x18>)
 800333a:	005b      	lsls	r3, r3, #1
 800333c:	f7fe fe2a 	bl	8001f94 <HAL_SPI_Transmit>
 8003340:	bd07      	pop	{r0, r1, r2, pc}
 8003342:	46c0      	nop			; (mov r8, r8)
 8003344:	200000f8 	.word	0x200000f8

08003348 <DEV_Module_Init>:
 8003348:	2180      	movs	r1, #128	; 0x80
 800334a:	b510      	push	{r4, lr}
 800334c:	2201      	movs	r2, #1
 800334e:	480b      	ldr	r0, [pc, #44]	; (800337c <DEV_Module_Init+0x34>)
 8003350:	0209      	lsls	r1, r1, #8
 8003352:	f7fe f883 	bl	800145c <HAL_GPIO_WritePin>
 8003356:	2180      	movs	r1, #128	; 0x80
 8003358:	2201      	movs	r2, #1
 800335a:	4809      	ldr	r0, [pc, #36]	; (8003380 <DEV_Module_Init+0x38>)
 800335c:	0089      	lsls	r1, r1, #2
 800335e:	f7fe f87d 	bl	800145c <HAL_GPIO_WritePin>
 8003362:	20a0      	movs	r0, #160	; 0xa0
 8003364:	2201      	movs	r2, #1
 8003366:	2108      	movs	r1, #8
 8003368:	05c0      	lsls	r0, r0, #23
 800336a:	f7fe f877 	bl	800145c <HAL_GPIO_WritePin>
 800336e:	2100      	movs	r1, #0
 8003370:	4804      	ldr	r0, [pc, #16]	; (8003384 <DEV_Module_Init+0x3c>)
 8003372:	f7ff fbb3 	bl	8002adc <HAL_TIM_PWM_Start>
 8003376:	2000      	movs	r0, #0
 8003378:	bd10      	pop	{r4, pc}
 800337a:	46c0      	nop			; (mov r8, r8)
 800337c:	50000800 	.word	0x50000800
 8003380:	50000400 	.word	0x50000400
 8003384:	2000015c 	.word	0x2000015c

08003388 <Paint_NewImage>:
 8003388:	b510      	push	{r4, lr}
 800338a:	4c09      	ldr	r4, [pc, #36]	; (80033b0 <Paint_NewImage+0x28>)
 800338c:	8120      	strh	r0, [r4, #8]
 800338e:	8161      	strh	r1, [r4, #10]
 8003390:	81a3      	strh	r3, [r4, #12]
 8003392:	2300      	movs	r3, #0
 8003394:	8260      	strh	r0, [r4, #18]
 8003396:	82a1      	strh	r1, [r4, #20]
 8003398:	81e2      	strh	r2, [r4, #14]
 800339a:	8223      	strh	r3, [r4, #16]
 800339c:	429a      	cmp	r2, r3
 800339e:	d001      	beq.n	80033a4 <Paint_NewImage+0x1c>
 80033a0:	2ab4      	cmp	r2, #180	; 0xb4
 80033a2:	d102      	bne.n	80033aa <Paint_NewImage+0x22>
 80033a4:	80a0      	strh	r0, [r4, #4]
 80033a6:	80e1      	strh	r1, [r4, #6]
 80033a8:	bd10      	pop	{r4, pc}
 80033aa:	80a1      	strh	r1, [r4, #4]
 80033ac:	80e0      	strh	r0, [r4, #6]
 80033ae:	e7fb      	b.n	80033a8 <Paint_NewImage+0x20>
 80033b0:	20000248 	.word	0x20000248

080033b4 <Paint_SetClearFuntion>:
 80033b4:	4b01      	ldr	r3, [pc, #4]	; (80033bc <Paint_SetClearFuntion+0x8>)
 80033b6:	6018      	str	r0, [r3, #0]
 80033b8:	4770      	bx	lr
 80033ba:	46c0      	nop			; (mov r8, r8)
 80033bc:	20000240 	.word	0x20000240

080033c0 <Paint_SetDisplayFuntion>:
 80033c0:	4b01      	ldr	r3, [pc, #4]	; (80033c8 <Paint_SetDisplayFuntion+0x8>)
 80033c2:	6018      	str	r0, [r3, #0]
 80033c4:	4770      	bx	lr
 80033c6:	46c0      	nop			; (mov r8, r8)
 80033c8:	20000244 	.word	0x20000244

080033cc <Paint_SetPixel>:
 80033cc:	b570      	push	{r4, r5, r6, lr}
 80033ce:	4c25      	ldr	r4, [pc, #148]	; (8003464 <Paint_SetPixel+0x98>)
 80033d0:	0003      	movs	r3, r0
 80033d2:	88a0      	ldrh	r0, [r4, #4]
 80033d4:	4298      	cmp	r0, r3
 80033d6:	d30c      	bcc.n	80033f2 <Paint_SetPixel+0x26>
 80033d8:	88e0      	ldrh	r0, [r4, #6]
 80033da:	4288      	cmp	r0, r1
 80033dc:	d309      	bcc.n	80033f2 <Paint_SetPixel+0x26>
 80033de:	89e5      	ldrh	r5, [r4, #14]
 80033e0:	b2a8      	uxth	r0, r5
 80033e2:	2db4      	cmp	r5, #180	; 0xb4
 80033e4:	d01d      	beq.n	8003422 <Paint_SetPixel+0x56>
 80033e6:	28b4      	cmp	r0, #180	; 0xb4
 80033e8:	d804      	bhi.n	80033f4 <Paint_SetPixel+0x28>
 80033ea:	2800      	cmp	r0, #0
 80033ec:	d011      	beq.n	8003412 <Paint_SetPixel+0x46>
 80033ee:	285a      	cmp	r0, #90	; 0x5a
 80033f0:	d00a      	beq.n	8003408 <Paint_SetPixel+0x3c>
 80033f2:	bd70      	pop	{r4, r5, r6, pc}
 80033f4:	2587      	movs	r5, #135	; 0x87
 80033f6:	006d      	lsls	r5, r5, #1
 80033f8:	42a8      	cmp	r0, r5
 80033fa:	d1fa      	bne.n	80033f2 <Paint_SetPixel+0x26>
 80033fc:	8960      	ldrh	r0, [r4, #10]
 80033fe:	3801      	subs	r0, #1
 8003400:	1ac0      	subs	r0, r0, r3
 8003402:	000b      	movs	r3, r1
 8003404:	b281      	uxth	r1, r0
 8003406:	e004      	b.n	8003412 <Paint_SetPixel+0x46>
 8003408:	8920      	ldrh	r0, [r4, #8]
 800340a:	3801      	subs	r0, #1
 800340c:	1a40      	subs	r0, r0, r1
 800340e:	0019      	movs	r1, r3
 8003410:	b283      	uxth	r3, r0
 8003412:	8a25      	ldrh	r5, [r4, #16]
 8003414:	b2a8      	uxth	r0, r5
 8003416:	2d03      	cmp	r5, #3
 8003418:	d8eb      	bhi.n	80033f2 <Paint_SetPixel+0x26>
 800341a:	f7fc fe71 	bl	8000100 <__gnu_thumb1_case_uqi>
 800341e:	0b0f      	.short	0x0b0f
 8003420:	1a1e      	.short	0x1a1e
 8003422:	8920      	ldrh	r0, [r4, #8]
 8003424:	3801      	subs	r0, #1
 8003426:	1ac3      	subs	r3, r0, r3
 8003428:	8960      	ldrh	r0, [r4, #10]
 800342a:	b29b      	uxth	r3, r3
 800342c:	3801      	subs	r0, #1
 800342e:	1a41      	subs	r1, r0, r1
 8003430:	b289      	uxth	r1, r1
 8003432:	e7ee      	b.n	8003412 <Paint_SetPixel+0x46>
 8003434:	8920      	ldrh	r0, [r4, #8]
 8003436:	3801      	subs	r0, #1
 8003438:	1ac3      	subs	r3, r0, r3
 800343a:	b29b      	uxth	r3, r3
 800343c:	8920      	ldrh	r0, [r4, #8]
 800343e:	4298      	cmp	r0, r3
 8003440:	d3d7      	bcc.n	80033f2 <Paint_SetPixel+0x26>
 8003442:	8960      	ldrh	r0, [r4, #10]
 8003444:	4288      	cmp	r0, r1
 8003446:	d3d4      	bcc.n	80033f2 <Paint_SetPixel+0x26>
 8003448:	4807      	ldr	r0, [pc, #28]	; (8003468 <Paint_SetPixel+0x9c>)
 800344a:	6804      	ldr	r4, [r0, #0]
 800344c:	0018      	movs	r0, r3
 800344e:	47a0      	blx	r4
 8003450:	e7cf      	b.n	80033f2 <Paint_SetPixel+0x26>
 8003452:	8920      	ldrh	r0, [r4, #8]
 8003454:	3801      	subs	r0, #1
 8003456:	1ac3      	subs	r3, r0, r3
 8003458:	b29b      	uxth	r3, r3
 800345a:	8960      	ldrh	r0, [r4, #10]
 800345c:	3801      	subs	r0, #1
 800345e:	1a41      	subs	r1, r0, r1
 8003460:	b289      	uxth	r1, r1
 8003462:	e7eb      	b.n	800343c <Paint_SetPixel+0x70>
 8003464:	20000248 	.word	0x20000248
 8003468:	20000244 	.word	0x20000244

0800346c <Paint_Clear>:
 800346c:	b510      	push	{r4, lr}
 800346e:	4b02      	ldr	r3, [pc, #8]	; (8003478 <Paint_Clear+0xc>)
 8003470:	681b      	ldr	r3, [r3, #0]
 8003472:	4798      	blx	r3
 8003474:	bd10      	pop	{r4, pc}
 8003476:	46c0      	nop			; (mov r8, r8)
 8003478:	20000240 	.word	0x20000240

0800347c <Paint_ClearWindows>:
 800347c:	b5f7      	push	{r0, r1, r2, r4, r5, r6, r7, lr}
 800347e:	000c      	movs	r4, r1
 8003480:	0016      	movs	r6, r2
 8003482:	9301      	str	r3, [sp, #4]
 8003484:	ab08      	add	r3, sp, #32
 8003486:	881f      	ldrh	r7, [r3, #0]
 8003488:	9000      	str	r0, [sp, #0]
 800348a:	9b01      	ldr	r3, [sp, #4]
 800348c:	429c      	cmp	r4, r3
 800348e:	d30c      	bcc.n	80034aa <Paint_ClearWindows+0x2e>
 8003490:	bdf7      	pop	{r0, r1, r2, r4, r5, r6, r7, pc}
 8003492:	0028      	movs	r0, r5
 8003494:	003a      	movs	r2, r7
 8003496:	0021      	movs	r1, r4
 8003498:	f7ff ff98 	bl	80033cc <Paint_SetPixel>
 800349c:	3501      	adds	r5, #1
 800349e:	b2ad      	uxth	r5, r5
 80034a0:	42b5      	cmp	r5, r6
 80034a2:	d3f6      	bcc.n	8003492 <Paint_ClearWindows+0x16>
 80034a4:	3401      	adds	r4, #1
 80034a6:	b2a4      	uxth	r4, r4
 80034a8:	e7ef      	b.n	800348a <Paint_ClearWindows+0xe>
 80034aa:	9d00      	ldr	r5, [sp, #0]
 80034ac:	e7f8      	b.n	80034a0 <Paint_ClearWindows+0x24>
	...

080034b0 <Paint_DrawPoint>:
 80034b0:	b5f0      	push	{r4, r5, r6, r7, lr}
 80034b2:	b087      	sub	sp, #28
 80034b4:	001d      	movs	r5, r3
 80034b6:	ab0c      	add	r3, sp, #48	; 0x30
 80034b8:	9202      	str	r2, [sp, #8]
 80034ba:	781a      	ldrb	r2, [r3, #0]
 80034bc:	4b2b      	ldr	r3, [pc, #172]	; (800356c <Paint_DrawPoint+0xbc>)
 80034be:	9001      	str	r0, [sp, #4]
 80034c0:	9100      	str	r1, [sp, #0]
 80034c2:	8899      	ldrh	r1, [r3, #4]
 80034c4:	4281      	cmp	r1, r0
 80034c6:	d34e      	bcc.n	8003566 <Paint_DrawPoint+0xb6>
 80034c8:	88db      	ldrh	r3, [r3, #6]
 80034ca:	9900      	ldr	r1, [sp, #0]
 80034cc:	428b      	cmp	r3, r1
 80034ce:	d34a      	bcc.n	8003566 <Paint_DrawPoint+0xb6>
 80034d0:	2400      	movs	r4, #0
 80034d2:	2a01      	cmp	r2, #1
 80034d4:	d145      	bne.n	8003562 <Paint_DrawPoint+0xb2>
 80034d6:	006f      	lsls	r7, r5, #1
 80034d8:	3f01      	subs	r7, #1
 80034da:	42bc      	cmp	r4, r7
 80034dc:	da43      	bge.n	8003566 <Paint_DrawPoint+0xb6>
 80034de:	b2ab      	uxth	r3, r5
 80034e0:	9303      	str	r3, [sp, #12]
 80034e2:	9b00      	ldr	r3, [sp, #0]
 80034e4:	b2a2      	uxth	r2, r4
 80034e6:	1b5e      	subs	r6, r3, r5
 80034e8:	b2a3      	uxth	r3, r4
 80034ea:	9304      	str	r3, [sp, #16]
 80034ec:	9b01      	ldr	r3, [sp, #4]
 80034ee:	b2b6      	uxth	r6, r6
 80034f0:	1b5b      	subs	r3, r3, r5
 80034f2:	18d3      	adds	r3, r2, r3
 80034f4:	9305      	str	r3, [sp, #20]
 80034f6:	e00f      	b.n	8003518 <Paint_DrawPoint+0x68>
 80034f8:	9a01      	ldr	r2, [sp, #4]
 80034fa:	9900      	ldr	r1, [sp, #0]
 80034fc:	1912      	adds	r2, r2, r4
 80034fe:	18cb      	adds	r3, r1, r3
 8003500:	1b52      	subs	r2, r2, r5
 8003502:	1b5b      	subs	r3, r3, r5
 8003504:	4313      	orrs	r3, r2
 8003506:	d40e      	bmi.n	8003526 <Paint_DrawPoint+0x76>
 8003508:	466b      	mov	r3, sp
 800350a:	0031      	movs	r1, r6
 800350c:	8a98      	ldrh	r0, [r3, #20]
 800350e:	9a02      	ldr	r2, [sp, #8]
 8003510:	f7ff ff5c 	bl	80033cc <Paint_SetPixel>
 8003514:	3601      	adds	r6, #1
 8003516:	b2b6      	uxth	r6, r6
 8003518:	9b03      	ldr	r3, [sp, #12]
 800351a:	9a00      	ldr	r2, [sp, #0]
 800351c:	1a9b      	subs	r3, r3, r2
 800351e:	18f3      	adds	r3, r6, r3
 8003520:	b21b      	sxth	r3, r3
 8003522:	42bb      	cmp	r3, r7
 8003524:	dbe8      	blt.n	80034f8 <Paint_DrawPoint+0x48>
 8003526:	9c04      	ldr	r4, [sp, #16]
 8003528:	3401      	adds	r4, #1
 800352a:	b224      	sxth	r4, r4
 800352c:	e7d5      	b.n	80034da <Paint_DrawPoint+0x2a>
 800352e:	9b00      	ldr	r3, [sp, #0]
 8003530:	9a00      	ldr	r2, [sp, #0]
 8003532:	1e5e      	subs	r6, r3, #1
 8003534:	9b01      	ldr	r3, [sp, #4]
 8003536:	b2a4      	uxth	r4, r4
 8003538:	1e5f      	subs	r7, r3, #1
 800353a:	2302      	movs	r3, #2
 800353c:	19e7      	adds	r7, r4, r7
 800353e:	1a9b      	subs	r3, r3, r2
 8003540:	b2b6      	uxth	r6, r6
 8003542:	b2bf      	uxth	r7, r7
 8003544:	9303      	str	r3, [sp, #12]
 8003546:	0031      	movs	r1, r6
 8003548:	0038      	movs	r0, r7
 800354a:	9a02      	ldr	r2, [sp, #8]
 800354c:	f7ff ff3e 	bl	80033cc <Paint_SetPixel>
 8003550:	9b03      	ldr	r3, [sp, #12]
 8003552:	18f3      	adds	r3, r6, r3
 8003554:	b21b      	sxth	r3, r3
 8003556:	3601      	adds	r6, #1
 8003558:	b2b6      	uxth	r6, r6
 800355a:	429d      	cmp	r5, r3
 800355c:	dcf3      	bgt.n	8003546 <Paint_DrawPoint+0x96>
 800355e:	3401      	adds	r4, #1
 8003560:	b224      	sxth	r4, r4
 8003562:	42a5      	cmp	r5, r4
 8003564:	dce3      	bgt.n	800352e <Paint_DrawPoint+0x7e>
 8003566:	b007      	add	sp, #28
 8003568:	bdf0      	pop	{r4, r5, r6, r7, pc}
 800356a:	46c0      	nop			; (mov r8, r8)
 800356c:	20000248 	.word	0x20000248

08003570 <Paint_DrawLine>:
 8003570:	b5f0      	push	{r4, r5, r6, r7, lr}
 8003572:	b08f      	sub	sp, #60	; 0x3c
 8003574:	9304      	str	r3, [sp, #16]
 8003576:	ab14      	add	r3, sp, #80	; 0x50
 8003578:	881b      	ldrh	r3, [r3, #0]
 800357a:	9203      	str	r2, [sp, #12]
 800357c:	930d      	str	r3, [sp, #52]	; 0x34
 800357e:	ab15      	add	r3, sp, #84	; 0x54
 8003580:	781b      	ldrb	r3, [r3, #0]
 8003582:	0005      	movs	r5, r0
 8003584:	930a      	str	r3, [sp, #40]	; 0x28
 8003586:	ab16      	add	r3, sp, #88	; 0x58
 8003588:	781b      	ldrb	r3, [r3, #0]
 800358a:	000c      	movs	r4, r1
 800358c:	930b      	str	r3, [sp, #44]	; 0x2c
 800358e:	4b35      	ldr	r3, [pc, #212]	; (8003664 <Paint_DrawLine+0xf4>)
 8003590:	889a      	ldrh	r2, [r3, #4]
 8003592:	4282      	cmp	r2, r0
 8003594:	d364      	bcc.n	8003660 <Paint_DrawLine+0xf0>
 8003596:	88da      	ldrh	r2, [r3, #6]
 8003598:	428a      	cmp	r2, r1
 800359a:	d361      	bcc.n	8003660 <Paint_DrawLine+0xf0>
 800359c:	889a      	ldrh	r2, [r3, #4]
 800359e:	9903      	ldr	r1, [sp, #12]
 80035a0:	428a      	cmp	r2, r1
 80035a2:	d35d      	bcc.n	8003660 <Paint_DrawLine+0xf0>
 80035a4:	88db      	ldrh	r3, [r3, #6]
 80035a6:	9a04      	ldr	r2, [sp, #16]
 80035a8:	4293      	cmp	r3, r2
 80035aa:	d359      	bcc.n	8003660 <Paint_DrawLine+0xf0>
 80035ac:	1a0b      	subs	r3, r1, r0
 80035ae:	17da      	asrs	r2, r3, #31
 80035b0:	189b      	adds	r3, r3, r2
 80035b2:	4053      	eors	r3, r2
 80035b4:	9305      	str	r3, [sp, #20]
 80035b6:	9b04      	ldr	r3, [sp, #16]
 80035b8:	1b1b      	subs	r3, r3, r4
 80035ba:	17da      	asrs	r2, r3, #31
 80035bc:	1899      	adds	r1, r3, r2
 80035be:	4051      	eors	r1, r2
 80035c0:	17da      	asrs	r2, r3, #31
 80035c2:	1ad3      	subs	r3, r2, r3
 80035c4:	4053      	eors	r3, r2
 80035c6:	930c      	str	r3, [sp, #48]	; 0x30
 80035c8:	2301      	movs	r3, #1
 80035ca:	9308      	str	r3, [sp, #32]
 80035cc:	9b03      	ldr	r3, [sp, #12]
 80035ce:	9106      	str	r1, [sp, #24]
 80035d0:	4298      	cmp	r0, r3
 80035d2:	d302      	bcc.n	80035da <Paint_DrawLine+0x6a>
 80035d4:	2301      	movs	r3, #1
 80035d6:	425b      	negs	r3, r3
 80035d8:	9308      	str	r3, [sp, #32]
 80035da:	2301      	movs	r3, #1
 80035dc:	9309      	str	r3, [sp, #36]	; 0x24
 80035de:	9b04      	ldr	r3, [sp, #16]
 80035e0:	429c      	cmp	r4, r3
 80035e2:	d302      	bcc.n	80035ea <Paint_DrawLine+0x7a>
 80035e4:	2301      	movs	r3, #1
 80035e6:	425b      	negs	r3, r3
 80035e8:	9309      	str	r3, [sp, #36]	; 0x24
 80035ea:	2700      	movs	r7, #0
 80035ec:	9b05      	ldr	r3, [sp, #20]
 80035ee:	9a06      	ldr	r2, [sp, #24]
 80035f0:	1a9e      	subs	r6, r3, r2
 80035f2:	3701      	adds	r7, #1
 80035f4:	b2fb      	uxtb	r3, r7
 80035f6:	9307      	str	r3, [sp, #28]
 80035f8:	9b0b      	ldr	r3, [sp, #44]	; 0x2c
 80035fa:	2b01      	cmp	r3, #1
 80035fc:	d126      	bne.n	800364c <Paint_DrawLine+0xdc>
 80035fe:	2103      	movs	r1, #3
 8003600:	9807      	ldr	r0, [sp, #28]
 8003602:	f7fc fe0d 	bl	8000220 <__aeabi_uidivmod>
 8003606:	b2cf      	uxtb	r7, r1
 8003608:	2f00      	cmp	r7, #0
 800360a:	d11f      	bne.n	800364c <Paint_DrawLine+0xdc>
 800360c:	9b0b      	ldr	r3, [sp, #44]	; 0x2c
 800360e:	0021      	movs	r1, r4
 8003610:	9300      	str	r3, [sp, #0]
 8003612:	0028      	movs	r0, r5
 8003614:	9b0a      	ldr	r3, [sp, #40]	; 0x28
 8003616:	4a14      	ldr	r2, [pc, #80]	; (8003668 <Paint_DrawLine+0xf8>)
 8003618:	f7ff ff4a 	bl	80034b0 <Paint_DrawPoint>
 800361c:	9a0c      	ldr	r2, [sp, #48]	; 0x30
 800361e:	0073      	lsls	r3, r6, #1
 8003620:	429a      	cmp	r2, r3
 8003622:	dc07      	bgt.n	8003634 <Paint_DrawLine+0xc4>
 8003624:	9b03      	ldr	r3, [sp, #12]
 8003626:	42ab      	cmp	r3, r5
 8003628:	d01a      	beq.n	8003660 <Paint_DrawLine+0xf0>
 800362a:	9b06      	ldr	r3, [sp, #24]
 800362c:	1af6      	subs	r6, r6, r3
 800362e:	9b08      	ldr	r3, [sp, #32]
 8003630:	18ed      	adds	r5, r5, r3
 8003632:	b2ad      	uxth	r5, r5
 8003634:	9a05      	ldr	r2, [sp, #20]
 8003636:	0073      	lsls	r3, r6, #1
 8003638:	429a      	cmp	r2, r3
 800363a:	dbda      	blt.n	80035f2 <Paint_DrawLine+0x82>
 800363c:	9b04      	ldr	r3, [sp, #16]
 800363e:	42a3      	cmp	r3, r4
 8003640:	d00e      	beq.n	8003660 <Paint_DrawLine+0xf0>
 8003642:	9b09      	ldr	r3, [sp, #36]	; 0x24
 8003644:	18b6      	adds	r6, r6, r2
 8003646:	18e4      	adds	r4, r4, r3
 8003648:	b2a4      	uxth	r4, r4
 800364a:	e7d2      	b.n	80035f2 <Paint_DrawLine+0x82>
 800364c:	2301      	movs	r3, #1
 800364e:	0021      	movs	r1, r4
 8003650:	9300      	str	r3, [sp, #0]
 8003652:	0028      	movs	r0, r5
 8003654:	9b0a      	ldr	r3, [sp, #40]	; 0x28
 8003656:	9a0d      	ldr	r2, [sp, #52]	; 0x34
 8003658:	f7ff ff2a 	bl	80034b0 <Paint_DrawPoint>
 800365c:	9f07      	ldr	r7, [sp, #28]
 800365e:	e7dd      	b.n	800361c <Paint_DrawLine+0xac>
 8003660:	b00f      	add	sp, #60	; 0x3c
 8003662:	bdf0      	pop	{r4, r5, r6, r7, pc}
 8003664:	20000248 	.word	0x20000248
 8003668:	0000ffff 	.word	0x0000ffff

0800366c <Paint_DrawRectangle>:
 800366c:	b5f0      	push	{r4, r5, r6, r7, lr}
 800366e:	b089      	sub	sp, #36	; 0x24
 8003670:	001e      	movs	r6, r3
 8003672:	ab0e      	add	r3, sp, #56	; 0x38
 8003674:	881b      	ldrh	r3, [r3, #0]
 8003676:	0015      	movs	r5, r2
 8003678:	9305      	str	r3, [sp, #20]
 800367a:	ab0f      	add	r3, sp, #60	; 0x3c
 800367c:	781b      	ldrb	r3, [r3, #0]
 800367e:	0007      	movs	r7, r0
 8003680:	9306      	str	r3, [sp, #24]
 8003682:	ab10      	add	r3, sp, #64	; 0x40
 8003684:	781b      	ldrb	r3, [r3, #0]
 8003686:	000c      	movs	r4, r1
 8003688:	9307      	str	r3, [sp, #28]
 800368a:	4b28      	ldr	r3, [pc, #160]	; (800372c <Paint_DrawRectangle+0xc0>)
 800368c:	889a      	ldrh	r2, [r3, #4]
 800368e:	4282      	cmp	r2, r0
 8003690:	d34a      	bcc.n	8003728 <Paint_DrawRectangle+0xbc>
 8003692:	88da      	ldrh	r2, [r3, #6]
 8003694:	428a      	cmp	r2, r1
 8003696:	d347      	bcc.n	8003728 <Paint_DrawRectangle+0xbc>
 8003698:	889a      	ldrh	r2, [r3, #4]
 800369a:	42aa      	cmp	r2, r5
 800369c:	d344      	bcc.n	8003728 <Paint_DrawRectangle+0xbc>
 800369e:	88db      	ldrh	r3, [r3, #6]
 80036a0:	42b3      	cmp	r3, r6
 80036a2:	d341      	bcc.n	8003728 <Paint_DrawRectangle+0xbc>
 80036a4:	9b07      	ldr	r3, [sp, #28]
 80036a6:	2b00      	cmp	r3, #0
 80036a8:	d13c      	bne.n	8003724 <Paint_DrawRectangle+0xb8>
 80036aa:	9b07      	ldr	r3, [sp, #28]
 80036ac:	002a      	movs	r2, r5
 80036ae:	9302      	str	r3, [sp, #8]
 80036b0:	9b06      	ldr	r3, [sp, #24]
 80036b2:	9301      	str	r3, [sp, #4]
 80036b4:	9b05      	ldr	r3, [sp, #20]
 80036b6:	9300      	str	r3, [sp, #0]
 80036b8:	000b      	movs	r3, r1
 80036ba:	f7ff ff59 	bl	8003570 <Paint_DrawLine>
 80036be:	9b07      	ldr	r3, [sp, #28]
 80036c0:	003a      	movs	r2, r7
 80036c2:	9302      	str	r3, [sp, #8]
 80036c4:	9b06      	ldr	r3, [sp, #24]
 80036c6:	0021      	movs	r1, r4
 80036c8:	9301      	str	r3, [sp, #4]
 80036ca:	9b05      	ldr	r3, [sp, #20]
 80036cc:	0038      	movs	r0, r7
 80036ce:	9300      	str	r3, [sp, #0]
 80036d0:	0033      	movs	r3, r6
 80036d2:	f7ff ff4d 	bl	8003570 <Paint_DrawLine>
 80036d6:	9b07      	ldr	r3, [sp, #28]
 80036d8:	002a      	movs	r2, r5
 80036da:	9302      	str	r3, [sp, #8]
 80036dc:	9b06      	ldr	r3, [sp, #24]
 80036de:	0031      	movs	r1, r6
 80036e0:	9301      	str	r3, [sp, #4]
 80036e2:	9b05      	ldr	r3, [sp, #20]
 80036e4:	0028      	movs	r0, r5
 80036e6:	9300      	str	r3, [sp, #0]
 80036e8:	0023      	movs	r3, r4
 80036ea:	f7ff ff41 	bl	8003570 <Paint_DrawLine>
 80036ee:	9b07      	ldr	r3, [sp, #28]
 80036f0:	003a      	movs	r2, r7
 80036f2:	9302      	str	r3, [sp, #8]
 80036f4:	9b06      	ldr	r3, [sp, #24]
 80036f6:	0031      	movs	r1, r6
 80036f8:	9301      	str	r3, [sp, #4]
 80036fa:	9b05      	ldr	r3, [sp, #20]
 80036fc:	0028      	movs	r0, r5
 80036fe:	9300      	str	r3, [sp, #0]
 8003700:	0033      	movs	r3, r6
 8003702:	f7ff ff35 	bl	8003570 <Paint_DrawLine>
 8003706:	e00f      	b.n	8003728 <Paint_DrawRectangle+0xbc>
 8003708:	2300      	movs	r3, #0
 800370a:	9302      	str	r3, [sp, #8]
 800370c:	9b06      	ldr	r3, [sp, #24]
 800370e:	0021      	movs	r1, r4
 8003710:	9301      	str	r3, [sp, #4]
 8003712:	9b05      	ldr	r3, [sp, #20]
 8003714:	002a      	movs	r2, r5
 8003716:	9300      	str	r3, [sp, #0]
 8003718:	0038      	movs	r0, r7
 800371a:	0023      	movs	r3, r4
 800371c:	f7ff ff28 	bl	8003570 <Paint_DrawLine>
 8003720:	3401      	adds	r4, #1
 8003722:	b2a4      	uxth	r4, r4
 8003724:	42b4      	cmp	r4, r6
 8003726:	d3ef      	bcc.n	8003708 <Paint_DrawRectangle+0x9c>
 8003728:	b009      	add	sp, #36	; 0x24
 800372a:	bdf0      	pop	{r4, r5, r6, r7, pc}
 800372c:	20000248 	.word	0x20000248

08003730 <Paint_DrawChar>:
 8003730:	b5f0      	push	{r4, r5, r6, r7, lr}
 8003732:	b087      	sub	sp, #28
 8003734:	001e      	movs	r6, r3
 8003736:	ab0c      	add	r3, sp, #48	; 0x30
 8003738:	881b      	ldrh	r3, [r3, #0]
 800373a:	9001      	str	r0, [sp, #4]
 800373c:	9304      	str	r3, [sp, #16]
 800373e:	ab0d      	add	r3, sp, #52	; 0x34
 8003740:	881b      	ldrh	r3, [r3, #0]
 8003742:	9102      	str	r1, [sp, #8]
 8003744:	9305      	str	r3, [sp, #20]
 8003746:	4b27      	ldr	r3, [pc, #156]	; (80037e4 <Paint_DrawChar+0xb4>)
 8003748:	8899      	ldrh	r1, [r3, #4]
 800374a:	4281      	cmp	r1, r0
 800374c:	d318      	bcc.n	8003780 <Paint_DrawChar+0x50>
 800374e:	88db      	ldrh	r3, [r3, #6]
 8003750:	9902      	ldr	r1, [sp, #8]
 8003752:	428b      	cmp	r3, r1
 8003754:	d314      	bcc.n	8003780 <Paint_DrawChar+0x50>
 8003756:	2307      	movs	r3, #7
 8003758:	88b1      	ldrh	r1, [r6, #4]
 800375a:	3a20      	subs	r2, #32
 800375c:	400b      	ands	r3, r1
 800375e:	1e58      	subs	r0, r3, #1
 8003760:	4183      	sbcs	r3, r0
 8003762:	08c9      	lsrs	r1, r1, #3
 8003764:	185b      	adds	r3, r3, r1
 8003766:	0011      	movs	r1, r2
 8003768:	88f2      	ldrh	r2, [r6, #6]
 800376a:	6837      	ldr	r7, [r6, #0]
 800376c:	434a      	muls	r2, r1
 800376e:	435a      	muls	r2, r3
 8003770:	9c02      	ldr	r4, [sp, #8]
 8003772:	18bf      	adds	r7, r7, r2
 8003774:	9b02      	ldr	r3, [sp, #8]
 8003776:	88f2      	ldrh	r2, [r6, #6]
 8003778:	1ae3      	subs	r3, r4, r3
 800377a:	b29b      	uxth	r3, r3
 800377c:	429a      	cmp	r2, r3
 800377e:	d82e      	bhi.n	80037de <Paint_DrawChar+0xae>
 8003780:	b007      	add	sp, #28
 8003782:	bdf0      	pop	{r4, r5, r6, r7, pc}
 8003784:	2307      	movs	r3, #7
 8003786:	2280      	movs	r2, #128	; 0x80
 8003788:	402b      	ands	r3, r5
 800378a:	411a      	asrs	r2, r3
 800378c:	9303      	str	r3, [sp, #12]
 800378e:	783b      	ldrb	r3, [r7, #0]
 8003790:	9904      	ldr	r1, [sp, #16]
 8003792:	4013      	ands	r3, r2
 8003794:	4a14      	ldr	r2, [pc, #80]	; (80037e8 <Paint_DrawChar+0xb8>)
 8003796:	4291      	cmp	r1, r2
 8003798:	d106      	bne.n	80037a8 <Paint_DrawChar+0x78>
 800379a:	2b00      	cmp	r3, #0
 800379c:	d00d      	beq.n	80037ba <Paint_DrawChar+0x8a>
 800379e:	9b01      	ldr	r3, [sp, #4]
 80037a0:	1958      	adds	r0, r3, r5
 80037a2:	b280      	uxth	r0, r0
 80037a4:	9a05      	ldr	r2, [sp, #20]
 80037a6:	e005      	b.n	80037b4 <Paint_DrawChar+0x84>
 80037a8:	9a01      	ldr	r2, [sp, #4]
 80037aa:	1950      	adds	r0, r2, r5
 80037ac:	b280      	uxth	r0, r0
 80037ae:	9a04      	ldr	r2, [sp, #16]
 80037b0:	2b00      	cmp	r3, #0
 80037b2:	d1f7      	bne.n	80037a4 <Paint_DrawChar+0x74>
 80037b4:	0021      	movs	r1, r4
 80037b6:	f7ff fe09 	bl	80033cc <Paint_SetPixel>
 80037ba:	9b03      	ldr	r3, [sp, #12]
 80037bc:	3501      	adds	r5, #1
 80037be:	3b07      	subs	r3, #7
 80037c0:	425a      	negs	r2, r3
 80037c2:	4153      	adcs	r3, r2
 80037c4:	b2ad      	uxth	r5, r5
 80037c6:	18ff      	adds	r7, r7, r3
 80037c8:	88b3      	ldrh	r3, [r6, #4]
 80037ca:	429d      	cmp	r5, r3
 80037cc:	d3da      	bcc.n	8003784 <Paint_DrawChar+0x54>
 80037ce:	2207      	movs	r2, #7
 80037d0:	4013      	ands	r3, r2
 80037d2:	1e5a      	subs	r2, r3, #1
 80037d4:	4193      	sbcs	r3, r2
 80037d6:	3401      	adds	r4, #1
 80037d8:	18ff      	adds	r7, r7, r3
 80037da:	b2a4      	uxth	r4, r4
 80037dc:	e7ca      	b.n	8003774 <Paint_DrawChar+0x44>
 80037de:	2500      	movs	r5, #0
 80037e0:	e7f2      	b.n	80037c8 <Paint_DrawChar+0x98>
 80037e2:	46c0      	nop			; (mov r8, r8)
 80037e4:	20000248 	.word	0x20000248
 80037e8:	0000ffff 	.word	0x0000ffff

080037ec <Paint_DrawString_EN>:
 80037ec:	b5f0      	push	{r4, r5, r6, r7, lr}
 80037ee:	b087      	sub	sp, #28
 80037f0:	001f      	movs	r7, r3
 80037f2:	ab0c      	add	r3, sp, #48	; 0x30
 80037f4:	881b      	ldrh	r3, [r3, #0]
 80037f6:	9102      	str	r1, [sp, #8]
 80037f8:	9304      	str	r3, [sp, #16]
 80037fa:	ab0d      	add	r3, sp, #52	; 0x34
 80037fc:	881b      	ldrh	r3, [r3, #0]
 80037fe:	9203      	str	r2, [sp, #12]
 8003800:	9305      	str	r3, [sp, #20]
 8003802:	4b18      	ldr	r3, [pc, #96]	; (8003864 <Paint_DrawString_EN+0x78>)
 8003804:	0006      	movs	r6, r0
 8003806:	889a      	ldrh	r2, [r3, #4]
 8003808:	4282      	cmp	r2, r0
 800380a:	d308      	bcc.n	800381e <Paint_DrawString_EN+0x32>
 800380c:	88db      	ldrh	r3, [r3, #6]
 800380e:	428b      	cmp	r3, r1
 8003810:	d305      	bcc.n	800381e <Paint_DrawString_EN+0x32>
 8003812:	000c      	movs	r4, r1
 8003814:	0005      	movs	r5, r0
 8003816:	9b03      	ldr	r3, [sp, #12]
 8003818:	781a      	ldrb	r2, [r3, #0]
 800381a:	2a00      	cmp	r2, #0
 800381c:	d101      	bne.n	8003822 <Paint_DrawString_EN+0x36>
 800381e:	b007      	add	sp, #28
 8003820:	bdf0      	pop	{r4, r5, r6, r7, pc}
 8003822:	4810      	ldr	r0, [pc, #64]	; (8003864 <Paint_DrawString_EN+0x78>)
 8003824:	88b9      	ldrh	r1, [r7, #4]
 8003826:	8883      	ldrh	r3, [r0, #4]
 8003828:	1949      	adds	r1, r1, r5
 800382a:	469c      	mov	ip, r3
 800382c:	88fb      	ldrh	r3, [r7, #6]
 800382e:	4561      	cmp	r1, ip
 8003830:	dd02      	ble.n	8003838 <Paint_DrawString_EN+0x4c>
 8003832:	0035      	movs	r5, r6
 8003834:	191c      	adds	r4, r3, r4
 8003836:	b2a4      	uxth	r4, r4
 8003838:	88c1      	ldrh	r1, [r0, #6]
 800383a:	18e3      	adds	r3, r4, r3
 800383c:	428b      	cmp	r3, r1
 800383e:	dd01      	ble.n	8003844 <Paint_DrawString_EN+0x58>
 8003840:	0035      	movs	r5, r6
 8003842:	9c02      	ldr	r4, [sp, #8]
 8003844:	9b05      	ldr	r3, [sp, #20]
 8003846:	0028      	movs	r0, r5
 8003848:	9301      	str	r3, [sp, #4]
 800384a:	9b04      	ldr	r3, [sp, #16]
 800384c:	0021      	movs	r1, r4
 800384e:	9300      	str	r3, [sp, #0]
 8003850:	003b      	movs	r3, r7
 8003852:	f7ff ff6d 	bl	8003730 <Paint_DrawChar>
 8003856:	9b03      	ldr	r3, [sp, #12]
 8003858:	3301      	adds	r3, #1
 800385a:	9303      	str	r3, [sp, #12]
 800385c:	88bb      	ldrh	r3, [r7, #4]
 800385e:	18ed      	adds	r5, r5, r3
 8003860:	b2ad      	uxth	r5, r5
 8003862:	e7d8      	b.n	8003816 <Paint_DrawString_EN+0x2a>
 8003864:	20000248 	.word	0x20000248

08003868 <Paint_DrawNum>:
 8003868:	b5f0      	push	{r4, r5, r6, r7, lr}
 800386a:	2500      	movs	r5, #0
 800386c:	4c28      	ldr	r4, [pc, #160]	; (8003910 <Paint_DrawNum+0xa8>)
 800386e:	0006      	movs	r6, r0
 8003870:	44a5      	add	sp, r4
 8003872:	9305      	str	r3, [sp, #20]
 8003874:	ab8e      	add	r3, sp, #568	; 0x238
 8003876:	881b      	ldrh	r3, [r3, #0]
 8003878:	9104      	str	r1, [sp, #16]
 800387a:	9306      	str	r3, [sp, #24]
 800387c:	ab8f      	add	r3, sp, #572	; 0x23c
 800387e:	881b      	ldrh	r3, [r3, #0]
 8003880:	0029      	movs	r1, r5
 8003882:	0014      	movs	r4, r2
 8003884:	a809      	add	r0, sp, #36	; 0x24
 8003886:	22fb      	movs	r2, #251	; 0xfb
 8003888:	9307      	str	r3, [sp, #28]
 800388a:	9508      	str	r5, [sp, #32]
 800388c:	f000 fb50 	bl	8003f30 <memset>
 8003890:	22fb      	movs	r2, #251	; 0xfb
 8003892:	0029      	movs	r1, r5
 8003894:	a849      	add	r0, sp, #292	; 0x124
 8003896:	9548      	str	r5, [sp, #288]	; 0x120
 8003898:	f000 fb4a 	bl	8003f30 <memset>
 800389c:	4b1d      	ldr	r3, [pc, #116]	; (8003914 <Paint_DrawNum+0xac>)
 800389e:	889a      	ldrh	r2, [r3, #4]
 80038a0:	42b2      	cmp	r2, r6
 80038a2:	d328      	bcc.n	80038f6 <Paint_DrawNum+0x8e>
 80038a4:	88db      	ldrh	r3, [r3, #6]
 80038a6:	9a04      	ldr	r2, [sp, #16]
 80038a8:	4293      	cmp	r3, r2
 80038aa:	d324      	bcc.n	80038f6 <Paint_DrawNum+0x8e>
 80038ac:	270a      	movs	r7, #10
 80038ae:	0020      	movs	r0, r4
 80038b0:	0039      	movs	r1, r7
 80038b2:	f7fc fd9f 	bl	80003f4 <__aeabi_idivmod>
 80038b6:	2284      	movs	r2, #132	; 0x84
 80038b8:	ab06      	add	r3, sp, #24
 80038ba:	0052      	lsls	r2, r2, #1
 80038bc:	3130      	adds	r1, #48	; 0x30
 80038be:	189b      	adds	r3, r3, r2
 80038c0:	5559      	strb	r1, [r3, r5]
 80038c2:	0020      	movs	r0, r4
 80038c4:	0039      	movs	r1, r7
 80038c6:	9503      	str	r5, [sp, #12]
 80038c8:	f7fc fcae 	bl	8000228 <__divsi3>
 80038cc:	3501      	adds	r5, #1
 80038ce:	0004      	movs	r4, r0
 80038d0:	b22d      	sxth	r5, r5
 80038d2:	2800      	cmp	r0, #0
 80038d4:	d1eb      	bne.n	80038ae <Paint_DrawNum+0x46>
 80038d6:	ab08      	add	r3, sp, #32
 80038d8:	001a      	movs	r2, r3
 80038da:	9d03      	ldr	r5, [sp, #12]
 80038dc:	1c69      	adds	r1, r5, #1
 80038de:	b209      	sxth	r1, r1
 80038e0:	2900      	cmp	r1, #0
 80038e2:	dc0c      	bgt.n	80038fe <Paint_DrawNum+0x96>
 80038e4:	9b07      	ldr	r3, [sp, #28]
 80038e6:	0030      	movs	r0, r6
 80038e8:	9301      	str	r3, [sp, #4]
 80038ea:	9b06      	ldr	r3, [sp, #24]
 80038ec:	9904      	ldr	r1, [sp, #16]
 80038ee:	9300      	str	r3, [sp, #0]
 80038f0:	9b05      	ldr	r3, [sp, #20]
 80038f2:	f7ff ff7b 	bl	80037ec <Paint_DrawString_EN>
 80038f6:	2389      	movs	r3, #137	; 0x89
 80038f8:	009b      	lsls	r3, r3, #2
 80038fa:	449d      	add	sp, r3
 80038fc:	bdf0      	pop	{r4, r5, r6, r7, pc}
 80038fe:	2084      	movs	r0, #132	; 0x84
 8003900:	a906      	add	r1, sp, #24
 8003902:	0040      	lsls	r0, r0, #1
 8003904:	1809      	adds	r1, r1, r0
 8003906:	5d49      	ldrb	r1, [r1, r5]
 8003908:	3d01      	subs	r5, #1
 800390a:	7019      	strb	r1, [r3, #0]
 800390c:	3301      	adds	r3, #1
 800390e:	e7e5      	b.n	80038dc <Paint_DrawNum+0x74>
 8003910:	fffffddc 	.word	0xfffffddc
 8003914:	20000248 	.word	0x20000248

08003918 <LCD_1IN28_SendCommand>:
 8003918:	b570      	push	{r4, r5, r6, lr}
 800391a:	2680      	movs	r6, #128	; 0x80
 800391c:	4d0b      	ldr	r5, [pc, #44]	; (800394c <LCD_1IN28_SendCommand+0x34>)
 800391e:	00b6      	lsls	r6, r6, #2
 8003920:	0031      	movs	r1, r6
 8003922:	0004      	movs	r4, r0
 8003924:	2200      	movs	r2, #0
 8003926:	0028      	movs	r0, r5
 8003928:	f7fd fd98 	bl	800145c <HAL_GPIO_WritePin>
 800392c:	2180      	movs	r1, #128	; 0x80
 800392e:	2200      	movs	r2, #0
 8003930:	0209      	lsls	r1, r1, #8
 8003932:	4807      	ldr	r0, [pc, #28]	; (8003950 <LCD_1IN28_SendCommand+0x38>)
 8003934:	f7fd fd92 	bl	800145c <HAL_GPIO_WritePin>
 8003938:	0020      	movs	r0, r4
 800393a:	f7ff fcf7 	bl	800332c <DEV_SPI_WRite>
 800393e:	0031      	movs	r1, r6
 8003940:	0028      	movs	r0, r5
 8003942:	2201      	movs	r2, #1
 8003944:	f7fd fd8a 	bl	800145c <HAL_GPIO_WritePin>
 8003948:	bd70      	pop	{r4, r5, r6, pc}
 800394a:	46c0      	nop			; (mov r8, r8)
 800394c:	50000400 	.word	0x50000400
 8003950:	50000800 	.word	0x50000800

08003954 <LCD_1IN28_SendData_8Bit>:
 8003954:	b570      	push	{r4, r5, r6, lr}
 8003956:	2680      	movs	r6, #128	; 0x80
 8003958:	4d0b      	ldr	r5, [pc, #44]	; (8003988 <LCD_1IN28_SendData_8Bit+0x34>)
 800395a:	00b6      	lsls	r6, r6, #2
 800395c:	0031      	movs	r1, r6
 800395e:	0004      	movs	r4, r0
 8003960:	2200      	movs	r2, #0
 8003962:	0028      	movs	r0, r5
 8003964:	f7fd fd7a 	bl	800145c <HAL_GPIO_WritePin>
 8003968:	2180      	movs	r1, #128	; 0x80
 800396a:	2201      	movs	r2, #1
 800396c:	0209      	lsls	r1, r1, #8
 800396e:	4807      	ldr	r0, [pc, #28]	; (800398c <LCD_1IN28_SendData_8Bit+0x38>)
 8003970:	f7fd fd74 	bl	800145c <HAL_GPIO_WritePin>
 8003974:	0020      	movs	r0, r4
 8003976:	f7ff fcd9 	bl	800332c <DEV_SPI_WRite>
 800397a:	0031      	movs	r1, r6
 800397c:	0028      	movs	r0, r5
 800397e:	2201      	movs	r2, #1
 8003980:	f7fd fd6c 	bl	800145c <HAL_GPIO_WritePin>
 8003984:	bd70      	pop	{r4, r5, r6, pc}
 8003986:	46c0      	nop			; (mov r8, r8)
 8003988:	50000400 	.word	0x50000400
 800398c:	50000800 	.word	0x50000800

08003990 <LCD_1IN28_SendData_16Bit>:
 8003990:	b570      	push	{r4, r5, r6, lr}
 8003992:	2680      	movs	r6, #128	; 0x80
 8003994:	4d0c      	ldr	r5, [pc, #48]	; (80039c8 <LCD_1IN28_SendData_16Bit+0x38>)
 8003996:	00b6      	lsls	r6, r6, #2
 8003998:	0004      	movs	r4, r0
 800399a:	0031      	movs	r1, r6
 800399c:	0028      	movs	r0, r5
 800399e:	2200      	movs	r2, #0
 80039a0:	f7fd fd5c 	bl	800145c <HAL_GPIO_WritePin>
 80039a4:	2180      	movs	r1, #128	; 0x80
 80039a6:	2201      	movs	r2, #1
 80039a8:	0209      	lsls	r1, r1, #8
 80039aa:	4808      	ldr	r0, [pc, #32]	; (80039cc <LCD_1IN28_SendData_16Bit+0x3c>)
 80039ac:	f7fd fd56 	bl	800145c <HAL_GPIO_WritePin>
 80039b0:	0a20      	lsrs	r0, r4, #8
 80039b2:	f7ff fcbb 	bl	800332c <DEV_SPI_WRite>
 80039b6:	b2e0      	uxtb	r0, r4
 80039b8:	f7ff fcb8 	bl	800332c <DEV_SPI_WRite>
 80039bc:	0031      	movs	r1, r6
 80039be:	0028      	movs	r0, r5
 80039c0:	2201      	movs	r2, #1
 80039c2:	f7fd fd4b 	bl	800145c <HAL_GPIO_WritePin>
 80039c6:	bd70      	pop	{r4, r5, r6, pc}
 80039c8:	50000400 	.word	0x50000400
 80039cc:	50000800 	.word	0x50000800

080039d0 <LCD_1IN28_Init>:
 80039d0:	2180      	movs	r1, #128	; 0x80
 80039d2:	b570      	push	{r4, r5, r6, lr}
 80039d4:	2200      	movs	r2, #0
 80039d6:	0089      	lsls	r1, r1, #2
 80039d8:	0004      	movs	r4, r0
 80039da:	48fd      	ldr	r0, [pc, #1012]	; (8003dd0 <LCD_1IN28_Init+0x400>)
 80039dc:	f7fd fd3e 	bl	800145c <HAL_GPIO_WritePin>
 80039e0:	2064      	movs	r0, #100	; 0x64
 80039e2:	f7fd f913 	bl	8000c0c <HAL_Delay>
 80039e6:	20a0      	movs	r0, #160	; 0xa0
 80039e8:	2200      	movs	r2, #0
 80039ea:	2108      	movs	r1, #8
 80039ec:	05c0      	lsls	r0, r0, #23
 80039ee:	f7fd fd35 	bl	800145c <HAL_GPIO_WritePin>
 80039f2:	2064      	movs	r0, #100	; 0x64
 80039f4:	f7fd f90a 	bl	8000c0c <HAL_Delay>
 80039f8:	20a0      	movs	r0, #160	; 0xa0
 80039fa:	2201      	movs	r2, #1
 80039fc:	2108      	movs	r1, #8
 80039fe:	05c0      	lsls	r0, r0, #23
 8003a00:	f7fd fd2c 	bl	800145c <HAL_GPIO_WritePin>
 8003a04:	2064      	movs	r0, #100	; 0x64
 8003a06:	f7fd f901 	bl	8000c0c <HAL_Delay>
 8003a0a:	25c8      	movs	r5, #200	; 0xc8
 8003a0c:	2c00      	cmp	r4, #0
 8003a0e:	d000      	beq.n	8003a12 <LCD_1IN28_Init+0x42>
 8003a10:	3d60      	subs	r5, #96	; 0x60
 8003a12:	4bf0      	ldr	r3, [pc, #960]	; (8003dd4 <LCD_1IN28_Init+0x404>)
 8003a14:	2036      	movs	r0, #54	; 0x36
 8003a16:	711c      	strb	r4, [r3, #4]
 8003a18:	24f0      	movs	r4, #240	; 0xf0
 8003a1a:	805c      	strh	r4, [r3, #2]
 8003a1c:	801c      	strh	r4, [r3, #0]
 8003a1e:	f7ff ff7b 	bl	8003918 <LCD_1IN28_SendCommand>
 8003a22:	0028      	movs	r0, r5
 8003a24:	f7ff ff96 	bl	8003954 <LCD_1IN28_SendData_8Bit>
 8003a28:	20ef      	movs	r0, #239	; 0xef
 8003a2a:	f7ff ff75 	bl	8003918 <LCD_1IN28_SendCommand>
 8003a2e:	20eb      	movs	r0, #235	; 0xeb
 8003a30:	f7ff ff72 	bl	8003918 <LCD_1IN28_SendCommand>
 8003a34:	2014      	movs	r0, #20
 8003a36:	f7ff ff8d 	bl	8003954 <LCD_1IN28_SendData_8Bit>
 8003a3a:	20fe      	movs	r0, #254	; 0xfe
 8003a3c:	f7ff ff6c 	bl	8003918 <LCD_1IN28_SendCommand>
 8003a40:	20ef      	movs	r0, #239	; 0xef
 8003a42:	f7ff ff69 	bl	8003918 <LCD_1IN28_SendCommand>
 8003a46:	20eb      	movs	r0, #235	; 0xeb
 8003a48:	f7ff ff66 	bl	8003918 <LCD_1IN28_SendCommand>
 8003a4c:	2014      	movs	r0, #20
 8003a4e:	f7ff ff81 	bl	8003954 <LCD_1IN28_SendData_8Bit>
 8003a52:	2084      	movs	r0, #132	; 0x84
 8003a54:	f7ff ff60 	bl	8003918 <LCD_1IN28_SendCommand>
 8003a58:	2040      	movs	r0, #64	; 0x40
 8003a5a:	f7ff ff7b 	bl	8003954 <LCD_1IN28_SendData_8Bit>
 8003a5e:	2085      	movs	r0, #133	; 0x85
 8003a60:	f7ff ff5a 	bl	8003918 <LCD_1IN28_SendCommand>
 8003a64:	20ff      	movs	r0, #255	; 0xff
 8003a66:	f7ff ff75 	bl	8003954 <LCD_1IN28_SendData_8Bit>
 8003a6a:	2086      	movs	r0, #134	; 0x86
 8003a6c:	f7ff ff54 	bl	8003918 <LCD_1IN28_SendCommand>
 8003a70:	20ff      	movs	r0, #255	; 0xff
 8003a72:	f7ff ff6f 	bl	8003954 <LCD_1IN28_SendData_8Bit>
 8003a76:	2087      	movs	r0, #135	; 0x87
 8003a78:	f7ff ff4e 	bl	8003918 <LCD_1IN28_SendCommand>
 8003a7c:	20ff      	movs	r0, #255	; 0xff
 8003a7e:	f7ff ff69 	bl	8003954 <LCD_1IN28_SendData_8Bit>
 8003a82:	2088      	movs	r0, #136	; 0x88
 8003a84:	f7ff ff48 	bl	8003918 <LCD_1IN28_SendCommand>
 8003a88:	200a      	movs	r0, #10
 8003a8a:	f7ff ff63 	bl	8003954 <LCD_1IN28_SendData_8Bit>
 8003a8e:	2089      	movs	r0, #137	; 0x89
 8003a90:	f7ff ff42 	bl	8003918 <LCD_1IN28_SendCommand>
 8003a94:	2021      	movs	r0, #33	; 0x21
 8003a96:	f7ff ff5d 	bl	8003954 <LCD_1IN28_SendData_8Bit>
 8003a9a:	208a      	movs	r0, #138	; 0x8a
 8003a9c:	f7ff ff3c 	bl	8003918 <LCD_1IN28_SendCommand>
 8003aa0:	2000      	movs	r0, #0
 8003aa2:	f7ff ff57 	bl	8003954 <LCD_1IN28_SendData_8Bit>
 8003aa6:	208b      	movs	r0, #139	; 0x8b
 8003aa8:	f7ff ff36 	bl	8003918 <LCD_1IN28_SendCommand>
 8003aac:	2080      	movs	r0, #128	; 0x80
 8003aae:	f7ff ff51 	bl	8003954 <LCD_1IN28_SendData_8Bit>
 8003ab2:	208c      	movs	r0, #140	; 0x8c
 8003ab4:	f7ff ff30 	bl	8003918 <LCD_1IN28_SendCommand>
 8003ab8:	2001      	movs	r0, #1
 8003aba:	f7ff ff4b 	bl	8003954 <LCD_1IN28_SendData_8Bit>
 8003abe:	208d      	movs	r0, #141	; 0x8d
 8003ac0:	f7ff ff2a 	bl	8003918 <LCD_1IN28_SendCommand>
 8003ac4:	2001      	movs	r0, #1
 8003ac6:	f7ff ff45 	bl	8003954 <LCD_1IN28_SendData_8Bit>
 8003aca:	208e      	movs	r0, #142	; 0x8e
 8003acc:	f7ff ff24 	bl	8003918 <LCD_1IN28_SendCommand>
 8003ad0:	20ff      	movs	r0, #255	; 0xff
 8003ad2:	f7ff ff3f 	bl	8003954 <LCD_1IN28_SendData_8Bit>
 8003ad6:	208f      	movs	r0, #143	; 0x8f
 8003ad8:	f7ff ff1e 	bl	8003918 <LCD_1IN28_SendCommand>
 8003adc:	20ff      	movs	r0, #255	; 0xff
 8003ade:	f7ff ff39 	bl	8003954 <LCD_1IN28_SendData_8Bit>
 8003ae2:	20b6      	movs	r0, #182	; 0xb6
 8003ae4:	f7ff ff18 	bl	8003918 <LCD_1IN28_SendCommand>
 8003ae8:	2000      	movs	r0, #0
 8003aea:	f7ff ff33 	bl	8003954 <LCD_1IN28_SendData_8Bit>
 8003aee:	2020      	movs	r0, #32
 8003af0:	f7ff ff30 	bl	8003954 <LCD_1IN28_SendData_8Bit>
 8003af4:	2036      	movs	r0, #54	; 0x36
 8003af6:	f7ff ff0f 	bl	8003918 <LCD_1IN28_SendCommand>
 8003afa:	2008      	movs	r0, #8
 8003afc:	f7ff ff2a 	bl	8003954 <LCD_1IN28_SendData_8Bit>
 8003b00:	203a      	movs	r0, #58	; 0x3a
 8003b02:	f7ff ff09 	bl	8003918 <LCD_1IN28_SendCommand>
 8003b06:	2005      	movs	r0, #5
 8003b08:	f7ff ff24 	bl	8003954 <LCD_1IN28_SendData_8Bit>
 8003b0c:	2090      	movs	r0, #144	; 0x90
 8003b0e:	f7ff ff03 	bl	8003918 <LCD_1IN28_SendCommand>
 8003b12:	2008      	movs	r0, #8
 8003b14:	f7ff ff1e 	bl	8003954 <LCD_1IN28_SendData_8Bit>
 8003b18:	2008      	movs	r0, #8
 8003b1a:	f7ff ff1b 	bl	8003954 <LCD_1IN28_SendData_8Bit>
 8003b1e:	2008      	movs	r0, #8
 8003b20:	f7ff ff18 	bl	8003954 <LCD_1IN28_SendData_8Bit>
 8003b24:	2008      	movs	r0, #8
 8003b26:	f7ff ff15 	bl	8003954 <LCD_1IN28_SendData_8Bit>
 8003b2a:	20bd      	movs	r0, #189	; 0xbd
 8003b2c:	f7ff fef4 	bl	8003918 <LCD_1IN28_SendCommand>
 8003b30:	2006      	movs	r0, #6
 8003b32:	f7ff ff0f 	bl	8003954 <LCD_1IN28_SendData_8Bit>
 8003b36:	20bc      	movs	r0, #188	; 0xbc
 8003b38:	f7ff feee 	bl	8003918 <LCD_1IN28_SendCommand>
 8003b3c:	2000      	movs	r0, #0
 8003b3e:	f7ff ff09 	bl	8003954 <LCD_1IN28_SendData_8Bit>
 8003b42:	20ff      	movs	r0, #255	; 0xff
 8003b44:	f7ff fee8 	bl	8003918 <LCD_1IN28_SendCommand>
 8003b48:	2060      	movs	r0, #96	; 0x60
 8003b4a:	f7ff ff03 	bl	8003954 <LCD_1IN28_SendData_8Bit>
 8003b4e:	2001      	movs	r0, #1
 8003b50:	f7ff ff00 	bl	8003954 <LCD_1IN28_SendData_8Bit>
 8003b54:	2004      	movs	r0, #4
 8003b56:	f7ff fefd 	bl	8003954 <LCD_1IN28_SendData_8Bit>
 8003b5a:	20c3      	movs	r0, #195	; 0xc3
 8003b5c:	f7ff fedc 	bl	8003918 <LCD_1IN28_SendCommand>
 8003b60:	2013      	movs	r0, #19
 8003b62:	f7ff fef7 	bl	8003954 <LCD_1IN28_SendData_8Bit>
 8003b66:	20c4      	movs	r0, #196	; 0xc4
 8003b68:	f7ff fed6 	bl	8003918 <LCD_1IN28_SendCommand>
 8003b6c:	2013      	movs	r0, #19
 8003b6e:	f7ff fef1 	bl	8003954 <LCD_1IN28_SendData_8Bit>
 8003b72:	20c9      	movs	r0, #201	; 0xc9
 8003b74:	f7ff fed0 	bl	8003918 <LCD_1IN28_SendCommand>
 8003b78:	2022      	movs	r0, #34	; 0x22
 8003b7a:	f7ff feeb 	bl	8003954 <LCD_1IN28_SendData_8Bit>
 8003b7e:	20be      	movs	r0, #190	; 0xbe
 8003b80:	f7ff feca 	bl	8003918 <LCD_1IN28_SendCommand>
 8003b84:	2011      	movs	r0, #17
 8003b86:	f7ff fee5 	bl	8003954 <LCD_1IN28_SendData_8Bit>
 8003b8a:	20e1      	movs	r0, #225	; 0xe1
 8003b8c:	f7ff fec4 	bl	8003918 <LCD_1IN28_SendCommand>
 8003b90:	2010      	movs	r0, #16
 8003b92:	f7ff fedf 	bl	8003954 <LCD_1IN28_SendData_8Bit>
 8003b96:	200e      	movs	r0, #14
 8003b98:	f7ff fedc 	bl	8003954 <LCD_1IN28_SendData_8Bit>
 8003b9c:	20df      	movs	r0, #223	; 0xdf
 8003b9e:	f7ff febb 	bl	8003918 <LCD_1IN28_SendCommand>
 8003ba2:	2021      	movs	r0, #33	; 0x21
 8003ba4:	f7ff fed6 	bl	8003954 <LCD_1IN28_SendData_8Bit>
 8003ba8:	200c      	movs	r0, #12
 8003baa:	f7ff fed3 	bl	8003954 <LCD_1IN28_SendData_8Bit>
 8003bae:	2002      	movs	r0, #2
 8003bb0:	f7ff fed0 	bl	8003954 <LCD_1IN28_SendData_8Bit>
 8003bb4:	0020      	movs	r0, r4
 8003bb6:	f7ff feaf 	bl	8003918 <LCD_1IN28_SendCommand>
 8003bba:	2045      	movs	r0, #69	; 0x45
 8003bbc:	f7ff feca 	bl	8003954 <LCD_1IN28_SendData_8Bit>
 8003bc0:	2009      	movs	r0, #9
 8003bc2:	f7ff fec7 	bl	8003954 <LCD_1IN28_SendData_8Bit>
 8003bc6:	2008      	movs	r0, #8
 8003bc8:	f7ff fec4 	bl	8003954 <LCD_1IN28_SendData_8Bit>
 8003bcc:	2008      	movs	r0, #8
 8003bce:	f7ff fec1 	bl	8003954 <LCD_1IN28_SendData_8Bit>
 8003bd2:	2026      	movs	r0, #38	; 0x26
 8003bd4:	f7ff febe 	bl	8003954 <LCD_1IN28_SendData_8Bit>
 8003bd8:	202a      	movs	r0, #42	; 0x2a
 8003bda:	f7ff febb 	bl	8003954 <LCD_1IN28_SendData_8Bit>
 8003bde:	20f1      	movs	r0, #241	; 0xf1
 8003be0:	f7ff fe9a 	bl	8003918 <LCD_1IN28_SendCommand>
 8003be4:	2043      	movs	r0, #67	; 0x43
 8003be6:	f7ff feb5 	bl	8003954 <LCD_1IN28_SendData_8Bit>
 8003bea:	2070      	movs	r0, #112	; 0x70
 8003bec:	f7ff feb2 	bl	8003954 <LCD_1IN28_SendData_8Bit>
 8003bf0:	2072      	movs	r0, #114	; 0x72
 8003bf2:	f7ff feaf 	bl	8003954 <LCD_1IN28_SendData_8Bit>
 8003bf6:	2036      	movs	r0, #54	; 0x36
 8003bf8:	f7ff feac 	bl	8003954 <LCD_1IN28_SendData_8Bit>
 8003bfc:	2037      	movs	r0, #55	; 0x37
 8003bfe:	f7ff fea9 	bl	8003954 <LCD_1IN28_SendData_8Bit>
 8003c02:	206f      	movs	r0, #111	; 0x6f
 8003c04:	f7ff fea6 	bl	8003954 <LCD_1IN28_SendData_8Bit>
 8003c08:	20f2      	movs	r0, #242	; 0xf2
 8003c0a:	f7ff fe85 	bl	8003918 <LCD_1IN28_SendCommand>
 8003c0e:	2045      	movs	r0, #69	; 0x45
 8003c10:	f7ff fea0 	bl	8003954 <LCD_1IN28_SendData_8Bit>
 8003c14:	2009      	movs	r0, #9
 8003c16:	f7ff fe9d 	bl	8003954 <LCD_1IN28_SendData_8Bit>
 8003c1a:	2008      	movs	r0, #8
 8003c1c:	f7ff fe9a 	bl	8003954 <LCD_1IN28_SendData_8Bit>
 8003c20:	2008      	movs	r0, #8
 8003c22:	f7ff fe97 	bl	8003954 <LCD_1IN28_SendData_8Bit>
 8003c26:	2026      	movs	r0, #38	; 0x26
 8003c28:	f7ff fe94 	bl	8003954 <LCD_1IN28_SendData_8Bit>
 8003c2c:	202a      	movs	r0, #42	; 0x2a
 8003c2e:	f7ff fe91 	bl	8003954 <LCD_1IN28_SendData_8Bit>
 8003c32:	20f3      	movs	r0, #243	; 0xf3
 8003c34:	f7ff fe70 	bl	8003918 <LCD_1IN28_SendCommand>
 8003c38:	2043      	movs	r0, #67	; 0x43
 8003c3a:	f7ff fe8b 	bl	8003954 <LCD_1IN28_SendData_8Bit>
 8003c3e:	2070      	movs	r0, #112	; 0x70
 8003c40:	f7ff fe88 	bl	8003954 <LCD_1IN28_SendData_8Bit>
 8003c44:	2072      	movs	r0, #114	; 0x72
 8003c46:	f7ff fe85 	bl	8003954 <LCD_1IN28_SendData_8Bit>
 8003c4a:	2036      	movs	r0, #54	; 0x36
 8003c4c:	f7ff fe82 	bl	8003954 <LCD_1IN28_SendData_8Bit>
 8003c50:	2037      	movs	r0, #55	; 0x37
 8003c52:	f7ff fe7f 	bl	8003954 <LCD_1IN28_SendData_8Bit>
 8003c56:	206f      	movs	r0, #111	; 0x6f
 8003c58:	f7ff fe7c 	bl	8003954 <LCD_1IN28_SendData_8Bit>
 8003c5c:	20ed      	movs	r0, #237	; 0xed
 8003c5e:	f7ff fe5b 	bl	8003918 <LCD_1IN28_SendCommand>
 8003c62:	201b      	movs	r0, #27
 8003c64:	f7ff fe76 	bl	8003954 <LCD_1IN28_SendData_8Bit>
 8003c68:	200b      	movs	r0, #11
 8003c6a:	f7ff fe73 	bl	8003954 <LCD_1IN28_SendData_8Bit>
 8003c6e:	20ae      	movs	r0, #174	; 0xae
 8003c70:	f7ff fe52 	bl	8003918 <LCD_1IN28_SendCommand>
 8003c74:	2077      	movs	r0, #119	; 0x77
 8003c76:	f7ff fe6d 	bl	8003954 <LCD_1IN28_SendData_8Bit>
 8003c7a:	20cd      	movs	r0, #205	; 0xcd
 8003c7c:	f7ff fe4c 	bl	8003918 <LCD_1IN28_SendCommand>
 8003c80:	2063      	movs	r0, #99	; 0x63
 8003c82:	f7ff fe67 	bl	8003954 <LCD_1IN28_SendData_8Bit>
 8003c86:	2070      	movs	r0, #112	; 0x70
 8003c88:	f7ff fe46 	bl	8003918 <LCD_1IN28_SendCommand>
 8003c8c:	2007      	movs	r0, #7
 8003c8e:	f7ff fe61 	bl	8003954 <LCD_1IN28_SendData_8Bit>
 8003c92:	2007      	movs	r0, #7
 8003c94:	f7ff fe5e 	bl	8003954 <LCD_1IN28_SendData_8Bit>
 8003c98:	2004      	movs	r0, #4
 8003c9a:	f7ff fe5b 	bl	8003954 <LCD_1IN28_SendData_8Bit>
 8003c9e:	200e      	movs	r0, #14
 8003ca0:	f7ff fe58 	bl	8003954 <LCD_1IN28_SendData_8Bit>
 8003ca4:	200f      	movs	r0, #15
 8003ca6:	f7ff fe55 	bl	8003954 <LCD_1IN28_SendData_8Bit>
 8003caa:	2009      	movs	r0, #9
 8003cac:	f7ff fe52 	bl	8003954 <LCD_1IN28_SendData_8Bit>
 8003cb0:	2007      	movs	r0, #7
 8003cb2:	f7ff fe4f 	bl	8003954 <LCD_1IN28_SendData_8Bit>
 8003cb6:	2008      	movs	r0, #8
 8003cb8:	f7ff fe4c 	bl	8003954 <LCD_1IN28_SendData_8Bit>
 8003cbc:	2003      	movs	r0, #3
 8003cbe:	f7ff fe49 	bl	8003954 <LCD_1IN28_SendData_8Bit>
 8003cc2:	20e8      	movs	r0, #232	; 0xe8
 8003cc4:	f7ff fe28 	bl	8003918 <LCD_1IN28_SendCommand>
 8003cc8:	2034      	movs	r0, #52	; 0x34
 8003cca:	f7ff fe43 	bl	8003954 <LCD_1IN28_SendData_8Bit>
 8003cce:	2062      	movs	r0, #98	; 0x62
 8003cd0:	f7ff fe22 	bl	8003918 <LCD_1IN28_SendCommand>
 8003cd4:	2018      	movs	r0, #24
 8003cd6:	f7ff fe3d 	bl	8003954 <LCD_1IN28_SendData_8Bit>
 8003cda:	200d      	movs	r0, #13
 8003cdc:	f7ff fe3a 	bl	8003954 <LCD_1IN28_SendData_8Bit>
 8003ce0:	2071      	movs	r0, #113	; 0x71
 8003ce2:	f7ff fe37 	bl	8003954 <LCD_1IN28_SendData_8Bit>
 8003ce6:	20ed      	movs	r0, #237	; 0xed
 8003ce8:	f7ff fe34 	bl	8003954 <LCD_1IN28_SendData_8Bit>
 8003cec:	2070      	movs	r0, #112	; 0x70
 8003cee:	f7ff fe31 	bl	8003954 <LCD_1IN28_SendData_8Bit>
 8003cf2:	2070      	movs	r0, #112	; 0x70
 8003cf4:	f7ff fe2e 	bl	8003954 <LCD_1IN28_SendData_8Bit>
 8003cf8:	2018      	movs	r0, #24
 8003cfa:	f7ff fe2b 	bl	8003954 <LCD_1IN28_SendData_8Bit>
 8003cfe:	200f      	movs	r0, #15
 8003d00:	f7ff fe28 	bl	8003954 <LCD_1IN28_SendData_8Bit>
 8003d04:	2071      	movs	r0, #113	; 0x71
 8003d06:	f7ff fe25 	bl	8003954 <LCD_1IN28_SendData_8Bit>
 8003d0a:	20ef      	movs	r0, #239	; 0xef
 8003d0c:	f7ff fe22 	bl	8003954 <LCD_1IN28_SendData_8Bit>
 8003d10:	2070      	movs	r0, #112	; 0x70
 8003d12:	f7ff fe1f 	bl	8003954 <LCD_1IN28_SendData_8Bit>
 8003d16:	2070      	movs	r0, #112	; 0x70
 8003d18:	f7ff fe1c 	bl	8003954 <LCD_1IN28_SendData_8Bit>
 8003d1c:	2063      	movs	r0, #99	; 0x63
 8003d1e:	f7ff fdfb 	bl	8003918 <LCD_1IN28_SendCommand>
 8003d22:	2018      	movs	r0, #24
 8003d24:	f7ff fe16 	bl	8003954 <LCD_1IN28_SendData_8Bit>
 8003d28:	2011      	movs	r0, #17
 8003d2a:	f7ff fe13 	bl	8003954 <LCD_1IN28_SendData_8Bit>
 8003d2e:	2071      	movs	r0, #113	; 0x71
 8003d30:	f7ff fe10 	bl	8003954 <LCD_1IN28_SendData_8Bit>
 8003d34:	20f1      	movs	r0, #241	; 0xf1
 8003d36:	f7ff fe0d 	bl	8003954 <LCD_1IN28_SendData_8Bit>
 8003d3a:	2070      	movs	r0, #112	; 0x70
 8003d3c:	f7ff fe0a 	bl	8003954 <LCD_1IN28_SendData_8Bit>
 8003d40:	2070      	movs	r0, #112	; 0x70
 8003d42:	f7ff fe07 	bl	8003954 <LCD_1IN28_SendData_8Bit>
 8003d46:	2018      	movs	r0, #24
 8003d48:	f7ff fe04 	bl	8003954 <LCD_1IN28_SendData_8Bit>
 8003d4c:	2013      	movs	r0, #19
 8003d4e:	f7ff fe01 	bl	8003954 <LCD_1IN28_SendData_8Bit>
 8003d52:	2071      	movs	r0, #113	; 0x71
 8003d54:	f7ff fdfe 	bl	8003954 <LCD_1IN28_SendData_8Bit>
 8003d58:	20f3      	movs	r0, #243	; 0xf3
 8003d5a:	f7ff fdfb 	bl	8003954 <LCD_1IN28_SendData_8Bit>
 8003d5e:	2070      	movs	r0, #112	; 0x70
 8003d60:	f7ff fdf8 	bl	8003954 <LCD_1IN28_SendData_8Bit>
 8003d64:	2070      	movs	r0, #112	; 0x70
 8003d66:	f7ff fdf5 	bl	8003954 <LCD_1IN28_SendData_8Bit>
 8003d6a:	2064      	movs	r0, #100	; 0x64
 8003d6c:	f7ff fdd4 	bl	8003918 <LCD_1IN28_SendCommand>
 8003d70:	2028      	movs	r0, #40	; 0x28
 8003d72:	f7ff fdef 	bl	8003954 <LCD_1IN28_SendData_8Bit>
 8003d76:	2029      	movs	r0, #41	; 0x29
 8003d78:	f7ff fdec 	bl	8003954 <LCD_1IN28_SendData_8Bit>
 8003d7c:	20f1      	movs	r0, #241	; 0xf1
 8003d7e:	f7ff fde9 	bl	8003954 <LCD_1IN28_SendData_8Bit>
 8003d82:	2001      	movs	r0, #1
 8003d84:	f7ff fde6 	bl	8003954 <LCD_1IN28_SendData_8Bit>
 8003d88:	20f1      	movs	r0, #241	; 0xf1
 8003d8a:	f7ff fde3 	bl	8003954 <LCD_1IN28_SendData_8Bit>
 8003d8e:	2000      	movs	r0, #0
 8003d90:	f7ff fde0 	bl	8003954 <LCD_1IN28_SendData_8Bit>
 8003d94:	2007      	movs	r0, #7
 8003d96:	f7ff fddd 	bl	8003954 <LCD_1IN28_SendData_8Bit>
 8003d9a:	2066      	movs	r0, #102	; 0x66
 8003d9c:	f7ff fdbc 	bl	8003918 <LCD_1IN28_SendCommand>
 8003da0:	203c      	movs	r0, #60	; 0x3c
 8003da2:	f7ff fdd7 	bl	8003954 <LCD_1IN28_SendData_8Bit>
 8003da6:	2000      	movs	r0, #0
 8003da8:	f7ff fdd4 	bl	8003954 <LCD_1IN28_SendData_8Bit>
 8003dac:	20cd      	movs	r0, #205	; 0xcd
 8003dae:	f7ff fdd1 	bl	8003954 <LCD_1IN28_SendData_8Bit>
 8003db2:	2067      	movs	r0, #103	; 0x67
 8003db4:	f7ff fdce 	bl	8003954 <LCD_1IN28_SendData_8Bit>
 8003db8:	2045      	movs	r0, #69	; 0x45
 8003dba:	f7ff fdcb 	bl	8003954 <LCD_1IN28_SendData_8Bit>
 8003dbe:	2045      	movs	r0, #69	; 0x45
 8003dc0:	f7ff fdc8 	bl	8003954 <LCD_1IN28_SendData_8Bit>
 8003dc4:	2010      	movs	r0, #16
 8003dc6:	f7ff fdc5 	bl	8003954 <LCD_1IN28_SendData_8Bit>
 8003dca:	2000      	movs	r0, #0
 8003dcc:	e004      	b.n	8003dd8 <LCD_1IN28_Init+0x408>
 8003dce:	46c0      	nop			; (mov r8, r8)
 8003dd0:	50000400 	.word	0x50000400
 8003dd4:	20000260 	.word	0x20000260
 8003dd8:	f7ff fdbc 	bl	8003954 <LCD_1IN28_SendData_8Bit>
 8003ddc:	2000      	movs	r0, #0
 8003dde:	f7ff fdb9 	bl	8003954 <LCD_1IN28_SendData_8Bit>
 8003de2:	2000      	movs	r0, #0
 8003de4:	f7ff fdb6 	bl	8003954 <LCD_1IN28_SendData_8Bit>
 8003de8:	2067      	movs	r0, #103	; 0x67
 8003dea:	f7ff fd95 	bl	8003918 <LCD_1IN28_SendCommand>
 8003dee:	2000      	movs	r0, #0
 8003df0:	f7ff fdb0 	bl	8003954 <LCD_1IN28_SendData_8Bit>
 8003df4:	203c      	movs	r0, #60	; 0x3c
 8003df6:	f7ff fdad 	bl	8003954 <LCD_1IN28_SendData_8Bit>
 8003dfa:	2000      	movs	r0, #0
 8003dfc:	f7ff fdaa 	bl	8003954 <LCD_1IN28_SendData_8Bit>
 8003e00:	2000      	movs	r0, #0
 8003e02:	f7ff fda7 	bl	8003954 <LCD_1IN28_SendData_8Bit>
 8003e06:	2000      	movs	r0, #0
 8003e08:	f7ff fda4 	bl	8003954 <LCD_1IN28_SendData_8Bit>
 8003e0c:	2001      	movs	r0, #1
 8003e0e:	f7ff fda1 	bl	8003954 <LCD_1IN28_SendData_8Bit>
 8003e12:	2054      	movs	r0, #84	; 0x54
 8003e14:	f7ff fd9e 	bl	8003954 <LCD_1IN28_SendData_8Bit>
 8003e18:	2010      	movs	r0, #16
 8003e1a:	f7ff fd9b 	bl	8003954 <LCD_1IN28_SendData_8Bit>
 8003e1e:	2032      	movs	r0, #50	; 0x32
 8003e20:	f7ff fd98 	bl	8003954 <LCD_1IN28_SendData_8Bit>
 8003e24:	2098      	movs	r0, #152	; 0x98
 8003e26:	f7ff fd95 	bl	8003954 <LCD_1IN28_SendData_8Bit>
 8003e2a:	2074      	movs	r0, #116	; 0x74
 8003e2c:	f7ff fd74 	bl	8003918 <LCD_1IN28_SendCommand>
 8003e30:	2010      	movs	r0, #16
 8003e32:	f7ff fd8f 	bl	8003954 <LCD_1IN28_SendData_8Bit>
 8003e36:	2085      	movs	r0, #133	; 0x85
 8003e38:	f7ff fd8c 	bl	8003954 <LCD_1IN28_SendData_8Bit>
 8003e3c:	2080      	movs	r0, #128	; 0x80
 8003e3e:	f7ff fd89 	bl	8003954 <LCD_1IN28_SendData_8Bit>
 8003e42:	2000      	movs	r0, #0
 8003e44:	f7ff fd86 	bl	8003954 <LCD_1IN28_SendData_8Bit>
 8003e48:	2000      	movs	r0, #0
 8003e4a:	f7ff fd83 	bl	8003954 <LCD_1IN28_SendData_8Bit>
 8003e4e:	204e      	movs	r0, #78	; 0x4e
 8003e50:	f7ff fd80 	bl	8003954 <LCD_1IN28_SendData_8Bit>
 8003e54:	2000      	movs	r0, #0
 8003e56:	f7ff fd7d 	bl	8003954 <LCD_1IN28_SendData_8Bit>
 8003e5a:	2098      	movs	r0, #152	; 0x98
 8003e5c:	f7ff fd5c 	bl	8003918 <LCD_1IN28_SendCommand>
 8003e60:	203e      	movs	r0, #62	; 0x3e
 8003e62:	f7ff fd77 	bl	8003954 <LCD_1IN28_SendData_8Bit>
 8003e66:	2007      	movs	r0, #7
 8003e68:	f7ff fd74 	bl	8003954 <LCD_1IN28_SendData_8Bit>
 8003e6c:	2035      	movs	r0, #53	; 0x35
 8003e6e:	f7ff fd53 	bl	8003918 <LCD_1IN28_SendCommand>
 8003e72:	2021      	movs	r0, #33	; 0x21
 8003e74:	f7ff fd50 	bl	8003918 <LCD_1IN28_SendCommand>
 8003e78:	2011      	movs	r0, #17
 8003e7a:	f7ff fd4d 	bl	8003918 <LCD_1IN28_SendCommand>
 8003e7e:	2078      	movs	r0, #120	; 0x78
 8003e80:	f7fc fec4 	bl	8000c0c <HAL_Delay>
 8003e84:	2029      	movs	r0, #41	; 0x29
 8003e86:	f7ff fd47 	bl	8003918 <LCD_1IN28_SendCommand>
 8003e8a:	2014      	movs	r0, #20
 8003e8c:	f7fc febe 	bl	8000c0c <HAL_Delay>
 8003e90:	bd70      	pop	{r4, r5, r6, pc}
 8003e92:	46c0      	nop			; (mov r8, r8)

08003e94 <LCD_1IN28_SetWindows>:
 8003e94:	b5f8      	push	{r3, r4, r5, r6, r7, lr}
 8003e96:	0007      	movs	r7, r0
 8003e98:	0016      	movs	r6, r2
 8003e9a:	000d      	movs	r5, r1
 8003e9c:	001c      	movs	r4, r3
 8003e9e:	202a      	movs	r0, #42	; 0x2a
 8003ea0:	f7ff fd3a 	bl	8003918 <LCD_1IN28_SendCommand>
 8003ea4:	2000      	movs	r0, #0
 8003ea6:	f7ff fd55 	bl	8003954 <LCD_1IN28_SendData_8Bit>
 8003eaa:	b2f8      	uxtb	r0, r7
 8003eac:	f7ff fd52 	bl	8003954 <LCD_1IN28_SendData_8Bit>
 8003eb0:	2000      	movs	r0, #0
 8003eb2:	f7ff fd4f 	bl	8003954 <LCD_1IN28_SendData_8Bit>
 8003eb6:	b2f0      	uxtb	r0, r6
 8003eb8:	f7ff fd4c 	bl	8003954 <LCD_1IN28_SendData_8Bit>
 8003ebc:	202b      	movs	r0, #43	; 0x2b
 8003ebe:	f7ff fd2b 	bl	8003918 <LCD_1IN28_SendCommand>
 8003ec2:	2000      	movs	r0, #0
 8003ec4:	f7ff fd46 	bl	8003954 <LCD_1IN28_SendData_8Bit>
 8003ec8:	b2e8      	uxtb	r0, r5
 8003eca:	f7ff fd43 	bl	8003954 <LCD_1IN28_SendData_8Bit>
 8003ece:	2000      	movs	r0, #0
 8003ed0:	f7ff fd40 	bl	8003954 <LCD_1IN28_SendData_8Bit>
 8003ed4:	b2e0      	uxtb	r0, r4
 8003ed6:	f7ff fd3d 	bl	8003954 <LCD_1IN28_SendData_8Bit>
 8003eda:	202c      	movs	r0, #44	; 0x2c
 8003edc:	f7ff fd1c 	bl	8003918 <LCD_1IN28_SendCommand>
 8003ee0:	bdf8      	pop	{r3, r4, r5, r6, r7, pc}

08003ee2 <LCD_1IN28_Clear>:
 8003ee2:	b5f8      	push	{r3, r4, r5, r6, r7, lr}
 8003ee4:	2100      	movs	r1, #0
 8003ee6:	23ef      	movs	r3, #239	; 0xef
 8003ee8:	24f0      	movs	r4, #240	; 0xf0
 8003eea:	0006      	movs	r6, r0
 8003eec:	001a      	movs	r2, r3
 8003eee:	0008      	movs	r0, r1
 8003ef0:	f7ff ffd0 	bl	8003e94 <LCD_1IN28_SetWindows>
 8003ef4:	0027      	movs	r7, r4
 8003ef6:	003d      	movs	r5, r7
 8003ef8:	3d01      	subs	r5, #1
 8003efa:	0030      	movs	r0, r6
 8003efc:	b2ad      	uxth	r5, r5
 8003efe:	f7ff fd47 	bl	8003990 <LCD_1IN28_SendData_16Bit>
 8003f02:	2d00      	cmp	r5, #0
 8003f04:	d1f8      	bne.n	8003ef8 <LCD_1IN28_Clear+0x16>
 8003f06:	3c01      	subs	r4, #1
 8003f08:	b2a4      	uxth	r4, r4
 8003f0a:	2c00      	cmp	r4, #0
 8003f0c:	d1f3      	bne.n	8003ef6 <LCD_1IN28_Clear+0x14>
 8003f0e:	bdf8      	pop	{r3, r4, r5, r6, r7, pc}

08003f10 <LCD_1IN28_DrawPaint>:
 8003f10:	b510      	push	{r4, lr}
 8003f12:	0014      	movs	r4, r2
 8003f14:	0002      	movs	r2, r0
 8003f16:	000b      	movs	r3, r1
 8003f18:	f7ff ffbc 	bl	8003e94 <LCD_1IN28_SetWindows>
 8003f1c:	0020      	movs	r0, r4
 8003f1e:	f7ff fd37 	bl	8003990 <LCD_1IN28_SendData_16Bit>
 8003f22:	bd10      	pop	{r4, pc}

08003f24 <LCD_1IN28_SetBackLight>:
 8003f24:	4b01      	ldr	r3, [pc, #4]	; (8003f2c <LCD_1IN28_SetBackLight+0x8>)
 8003f26:	6358      	str	r0, [r3, #52]	; 0x34
 8003f28:	4770      	bx	lr
 8003f2a:	46c0      	nop			; (mov r8, r8)
 8003f2c:	40014400 	.word	0x40014400

08003f30 <memset>:
 8003f30:	0003      	movs	r3, r0
 8003f32:	1882      	adds	r2, r0, r2
 8003f34:	4293      	cmp	r3, r2
 8003f36:	d100      	bne.n	8003f3a <memset+0xa>
 8003f38:	4770      	bx	lr
 8003f3a:	7019      	strb	r1, [r3, #0]
 8003f3c:	3301      	adds	r3, #1
 8003f3e:	e7f9      	b.n	8003f34 <memset+0x4>

08003f40 <__libc_init_array>:
 8003f40:	b570      	push	{r4, r5, r6, lr}
 8003f42:	2600      	movs	r6, #0
 8003f44:	4c0c      	ldr	r4, [pc, #48]	; (8003f78 <__libc_init_array+0x38>)
 8003f46:	4d0d      	ldr	r5, [pc, #52]	; (8003f7c <__libc_init_array+0x3c>)
 8003f48:	1b64      	subs	r4, r4, r5
 8003f4a:	10a4      	asrs	r4, r4, #2
 8003f4c:	42a6      	cmp	r6, r4
 8003f4e:	d109      	bne.n	8003f64 <__libc_init_array+0x24>
 8003f50:	2600      	movs	r6, #0
 8003f52:	f000 f823 	bl	8003f9c <_init>
 8003f56:	4c0a      	ldr	r4, [pc, #40]	; (8003f80 <__libc_init_array+0x40>)
 8003f58:	4d0a      	ldr	r5, [pc, #40]	; (8003f84 <__libc_init_array+0x44>)
 8003f5a:	1b64      	subs	r4, r4, r5
 8003f5c:	10a4      	asrs	r4, r4, #2
 8003f5e:	42a6      	cmp	r6, r4
 8003f60:	d105      	bne.n	8003f6e <__libc_init_array+0x2e>
 8003f62:	bd70      	pop	{r4, r5, r6, pc}
 8003f64:	00b3      	lsls	r3, r6, #2
 8003f66:	58eb      	ldr	r3, [r5, r3]
 8003f68:	4798      	blx	r3
 8003f6a:	3601      	adds	r6, #1
 8003f6c:	e7ee      	b.n	8003f4c <__libc_init_array+0xc>
 8003f6e:	00b3      	lsls	r3, r6, #2
 8003f70:	58eb      	ldr	r3, [r5, r3]
 8003f72:	4798      	blx	r3
 8003f74:	3601      	adds	r6, #1
 8003f76:	e7f2      	b.n	8003f5e <__libc_init_array+0x1e>
 8003f78:	08004c38 	.word	0x08004c38
 8003f7c:	08004c38 	.word	0x08004c38
 8003f80:	08004c3c 	.word	0x08004c3c
 8003f84:	08004c38 	.word	0x08004c38

08003f88 <memcpy>:
 8003f88:	2300      	movs	r3, #0
 8003f8a:	b510      	push	{r4, lr}
 8003f8c:	429a      	cmp	r2, r3
 8003f8e:	d100      	bne.n	8003f92 <memcpy+0xa>
 8003f90:	bd10      	pop	{r4, pc}
 8003f92:	5ccc      	ldrb	r4, [r1, r3]
 8003f94:	54c4      	strb	r4, [r0, r3]
 8003f96:	3301      	adds	r3, #1
 8003f98:	e7f8      	b.n	8003f8c <memcpy+0x4>
	...

08003f9c <_init>:
 8003f9c:	b5f8      	push	{r3, r4, r5, r6, r7, lr}
 8003f9e:	46c0      	nop			; (mov r8, r8)
 8003fa0:	bcf8      	pop	{r3, r4, r5, r6, r7}
 8003fa2:	bc08      	pop	{r3}
 8003fa4:	469e      	mov	lr, r3
 8003fa6:	4770      	bx	lr

08003fa8 <_fini>:
 8003fa8:	b5f8      	push	{r3, r4, r5, r6, r7, lr}
 8003faa:	46c0      	nop			; (mov r8, r8)
 8003fac:	bcf8      	pop	{r3, r4, r5, r6, r7}
 8003fae:	bc08      	pop	{r3}
 8003fb0:	469e      	mov	lr, r3
 8003fb2:	4770      	bx	lr
